
========================================================================

** ELF Header Information

    File Name: midi-box\midi-box.axf

    Machine class: ELFCLASS32 (32-bit)
    Data encoding: ELFDATA2LSB (Little endian)
    Header version: EV_CURRENT (Current version)
    Operating System ABI: none
    ABI Version: 0
    File Type: ET_EXEC (Executable) (2)
    Machine: EM_ARM (ARM)

    Image Entry point: 0x080000ed
    Flags: EF_ARM_HASENTRY + EF_ARM_ABI_FLOAT_SOFT (0x05000202)

    ARM ELF revision: 5 (ABI version 2)

    Conforms to Soft float procedure-call standard

    Built with
    Component: ARM Compiler 5.06 update 2 (build 183) Tool: armasm [4d35b2]
    Component: ARM Compiler 5.06 update 2 (build 183) Tool: armlink [4d35b7]

    Header size: 52 bytes (0x34)
    Program header entry size: 32 bytes (0x20)
    Section header entry size: 40 bytes (0x28)

    Program header entries: 1
    Section header entries: 16

    Program header offset: 636920 (0x0009b7f8)
    Section header offset: 636952 (0x0009b818)

    Section header string table index: 15

========================================================================

** Program header #0 (PT_LOAD) [PF_X + PF_W + PF_R + PF_ARM_ENTRY]
    Size : 19948 bytes (14592 bytes in file)
    Virtual address: 0x08000000 (Alignment 8)


========================================================================

** Section #1 'ER_IROM1' (SHT_PROGBITS) [SHF_ALLOC + SHF_EXECINSTR]
    Size   : 14412 bytes (alignment 4)
    Address: 0x08000000

    $d.realdata
    RESET
    __Vectors
        0x08000000:    200015a0    ...     DCD    536876448
        0x08000004:    080001c9    ....    DCD    134218185
        0x08000008:    08001afb    ....    DCD    134224635
        0x0800000c:    08001799    ....    DCD    134223769
        0x08000010:    08001af9    ....    DCD    134224633
        0x08000014:    08000333    3...    DCD    134218547
        0x08000018:    080037bf    .7..    DCD    134231999
        0x0800001c:    00000000    ....    DCD    0
        0x08000020:    00000000    ....    DCD    0
        0x08000024:    00000000    ....    DCD    0
        0x08000028:    00000000    ....    DCD    0
        0x0800002c:    08001e13    ....    DCD    134225427
        0x08000030:    08000335    5...    DCD    134218549
        0x08000034:    00000000    ....    DCD    0
        0x08000038:    08001e11    ....    DCD    134225425
        0x0800003c:    08001e15    ....    DCD    134225429
        0x08000040:    080001e3    ....    DCD    134218211
        0x08000044:    080001e3    ....    DCD    134218211
        0x08000048:    080001e3    ....    DCD    134218211
        0x0800004c:    080001e3    ....    DCD    134218211
        0x08000050:    080001e3    ....    DCD    134218211
        0x08000054:    080001e3    ....    DCD    134218211
        0x08000058:    080001e3    ....    DCD    134218211
        0x0800005c:    080001e3    ....    DCD    134218211
        0x08000060:    080001e3    ....    DCD    134218211
        0x08000064:    080001e3    ....    DCD    134218211
        0x08000068:    080001e3    ....    DCD    134218211
        0x0800006c:    080001e3    ....    DCD    134218211
        0x08000070:    080001e3    ....    DCD    134218211
        0x08000074:    080001e3    ....    DCD    134218211
        0x08000078:    080001e3    ....    DCD    134218211
        0x0800007c:    080001e3    ....    DCD    134218211
        0x08000080:    080001e3    ....    DCD    134218211
        0x08000084:    080001e3    ....    DCD    134218211
        0x08000088:    080001e3    ....    DCD    134218211
        0x0800008c:    080001e3    ....    DCD    134218211
        0x08000090:    08003749    I7..    DCD    134231881
        0x08000094:    080001e3    ....    DCD    134218211
        0x08000098:    080001e3    ....    DCD    134218211
        0x0800009c:    080001e3    ....    DCD    134218211
        0x080000a0:    080001e3    ....    DCD    134218211
        0x080000a4:    080001e3    ....    DCD    134218211
        0x080000a8:    080001e3    ....    DCD    134218211
        0x080000ac:    080001e3    ....    DCD    134218211
        0x080000b0:    080001e3    ....    DCD    134218211
        0x080000b4:    080001e3    ....    DCD    134218211
        0x080000b8:    080001e3    ....    DCD    134218211
        0x080000bc:    080001e3    ....    DCD    134218211
        0x080000c0:    080001e3    ....    DCD    134218211
        0x080000c4:    080001e3    ....    DCD    134218211
        0x080000c8:    080001e3    ....    DCD    134218211
        0x080000cc:    080001e3    ....    DCD    134218211
        0x080000d0:    080001e3    ....    DCD    134218211
        0x080000d4:    08002069    i ..    DCD    134226025
        0x080000d8:    080020cd    . ..    DCD    134226125
        0x080000dc:    0800210d    .!..    DCD    134226189
        0x080000e0:    080001e3    ....    DCD    134218211
        0x080000e4:    080001e3    ....    DCD    134218211
        0x080000e8:    080001e3    ....    DCD    134218211
    $t
    !!!main
    __Vectors_End
    __main
        0x080000ec:    f000f802    ....    BL       __scatterload ; 0x80000f4
        0x080000f0:    f000f85a    ..Z.    BL       __rt_entry ; 0x80001a8
    !!!scatter
    __scatterload
    __scatterload_rt2
    __scatterload_rt2_thumb_only
        0x080000f4:    a00a        ..      ADR      r0,{pc}+0x2c ; 0x8000120
        0x080000f6:    e8900c00    ....    LDM      r0,{r10,r11}
        0x080000fa:    4482        .D      ADD      r10,r10,r0
        0x080000fc:    4483        .D      ADD      r11,r11,r0
        0x080000fe:    f1aa0701    ....    SUB      r7,r10,#1
    __scatterload_null
        0x08000102:    45da        .E      CMP      r10,r11
        0x08000104:    d101        ..      BNE      0x800010a ; __scatterload_null + 8
        0x08000106:    f000f84f    ..O.    BL       __rt_entry ; 0x80001a8
        0x0800010a:    f2af0e09    ....    ADR      lr,{pc}-7 ; 0x8000103
        0x0800010e:    e8ba000f    ....    LDM      r10!,{r0-r3}
        0x08000112:    f0130f01    ....    TST      r3,#1
        0x08000116:    bf18        ..      IT       NE
        0x08000118:    1afb        ..      SUBNE    r3,r7,r3
        0x0800011a:    f0430301    C...    ORR      r3,r3,#1
        0x0800011e:    4718        .G      BX       r3
    $d
        0x08000120:    0000370c    .7..    DCD    14092
        0x08000124:    0000372c    ,7..    DCD    14124
    $t
    !!dczerorl2
    __decompress
    __decompress1
        0x08000128:    440a        .D      ADD      r2,r2,r1
        0x0800012a:    f04f0c00    O...    MOV      r12,#0
        0x0800012e:    f8103b01    ...;    LDRB     r3,[r0],#1
        0x08000132:    f0130407    ....    ANDS     r4,r3,#7
        0x08000136:    bf08        ..      IT       EQ
        0x08000138:    f8104b01    ...K    LDRBEQ   r4,[r0],#1
        0x0800013c:    111d        ..      ASRS     r5,r3,#4
        0x0800013e:    bf08        ..      IT       EQ
        0x08000140:    f8105b01    ...[    LDRBEQ   r5,[r0],#1
        0x08000144:    1e64        d.      SUBS     r4,r4,#1
        0x08000146:    d005        ..      BEQ      0x8000154 ; __decompress + 44
        0x08000148:    f8106b01    ...k    LDRB     r6,[r0],#1
        0x0800014c:    1e64        d.      SUBS     r4,r4,#1
        0x0800014e:    f8016b01    ...k    STRB     r6,[r1],#1
        0x08000152:    d1f9        ..      BNE      0x8000148 ; __decompress + 32
        0x08000154:    f0130f08    ....    TST      r3,#8
        0x08000158:    bf1e        ..      ITTT     NE
        0x0800015a:    f8104b01    ...K    LDRBNE   r4,[r0],#1
        0x0800015e:    1cad        ..      ADDNE    r5,r5,#2
        0x08000160:    1b0c        ..      SUBNE    r4,r1,r4
        0x08000162:    d109        ..      BNE      0x8000178 ; __decompress + 80
        0x08000164:    1e6d        m.      SUBS     r5,r5,#1
        0x08000166:    bf58        X.      IT       PL
        0x08000168:    f801cb01    ....    STRBPL   r12,[r1],#1
        0x0800016c:    d5fa        ..      BPL      0x8000164 ; __decompress + 60
        0x0800016e:    e005        ..      B        0x800017c ; __decompress + 84
        0x08000170:    f8146b01    ...k    LDRB     r6,[r4],#1
        0x08000174:    f8016b01    ...k    STRB     r6,[r1],#1
        0x08000178:    1e6d        m.      SUBS     r5,r5,#1
        0x0800017a:    d5f9        ..      BPL      0x8000170 ; __decompress + 72
        0x0800017c:    4291        .B      CMP      r1,r2
        0x0800017e:    d3d6        ..      BCC      0x800012e ; __decompress + 6
        0x08000180:    4770        pG      BX       lr
        0x08000182:    0000        ..      MOVS     r0,r0
    !!handler_zi
    __scatterload_zeroinit
        0x08000184:    2300        .#      MOVS     r3,#0
        0x08000186:    2400        .$      MOVS     r4,#0
        0x08000188:    2500        .%      MOVS     r5,#0
        0x0800018a:    2600        .&      MOVS     r6,#0
        0x0800018c:    3a10        .:      SUBS     r2,r2,#0x10
        0x0800018e:    bf28        (.      IT       CS
        0x08000190:    c178        x.      STMCS    r1!,{r3-r6}
        0x08000192:    d8fb        ..      BHI      0x800018c ; __scatterload_zeroinit + 8
        0x08000194:    0752        R.      LSLS     r2,r2,#29
        0x08000196:    bf28        (.      IT       CS
        0x08000198:    c130        0.      STMCS    r1!,{r4,r5}
        0x0800019a:    bf48        H.      IT       MI
        0x0800019c:    600b        .`      STRMI    r3,[r1,#0]
        0x0800019e:    4770        pG      BX       lr
    .ARM.Collect$$libinit$$00000000
    __rt_lib_init
        0x080001a0:    b51f        ..      PUSH     {r0-r4,lr}
    .ARM.Collect$$libinit$$00000002
    .ARM.Collect$$libinit$$00000004
    .ARM.Collect$$libinit$$0000000A
    .ARM.Collect$$libinit$$0000000C
    .ARM.Collect$$libinit$$0000000E
    .ARM.Collect$$libinit$$00000011
    .ARM.Collect$$libinit$$00000013
    .ARM.Collect$$libinit$$00000015
    .ARM.Collect$$libinit$$00000017
    .ARM.Collect$$libinit$$00000019
    .ARM.Collect$$libinit$$0000001B
    .ARM.Collect$$libinit$$0000001D
    .ARM.Collect$$libinit$$0000001F
    .ARM.Collect$$libinit$$00000021
    .ARM.Collect$$libinit$$00000023
    .ARM.Collect$$libinit$$00000025
    .ARM.Collect$$libinit$$0000002C
    .ARM.Collect$$libinit$$0000002E
    .ARM.Collect$$libinit$$00000030
    .ARM.Collect$$libinit$$00000032
    .ARM.Collect$$libinit$$00000033
    __rt_lib_init_alloca_1
    __rt_lib_init_argv_1
    __rt_lib_init_atexit_1
    __rt_lib_init_clock_1
    __rt_lib_init_cpp_1
    __rt_lib_init_exceptions_1
    __rt_lib_init_fp_1
    __rt_lib_init_fp_trap_1
    __rt_lib_init_getenv_1
    __rt_lib_init_heap_1
    __rt_lib_init_lc_collate_1
    __rt_lib_init_lc_ctype_1
    __rt_lib_init_lc_monetary_1
    __rt_lib_init_lc_numeric_1
    __rt_lib_init_lc_time_1
    __rt_lib_init_preinit_1
    __rt_lib_init_rand_1
    __rt_lib_init_return
    __rt_lib_init_signal_1
    __rt_lib_init_stdio_1
    __rt_lib_init_user_alloc_1
        0x080001a2:    bd1f        ..      POP      {r0-r4,pc}
    .ARM.Collect$$libshutdown$$00000000
    __rt_lib_shutdown
        0x080001a4:    b510        ..      PUSH     {r4,lr}
    .ARM.Collect$$libshutdown$$00000002
    .ARM.Collect$$libshutdown$$00000004
    .ARM.Collect$$libshutdown$$00000007
    .ARM.Collect$$libshutdown$$0000000A
    .ARM.Collect$$libshutdown$$0000000C
    .ARM.Collect$$libshutdown$$0000000F
    .ARM.Collect$$libshutdown$$00000010
    __rt_lib_shutdown_cpp_1
    __rt_lib_shutdown_fp_trap_1
    __rt_lib_shutdown_heap_1
    __rt_lib_shutdown_return
    __rt_lib_shutdown_signal_1
    __rt_lib_shutdown_stdio_1
    __rt_lib_shutdown_user_alloc_1
        0x080001a6:    bd10        ..      POP      {r4,pc}
    .ARM.Collect$$rtentry$$00000000
    .ARM.Collect$$rtentry$$00000002
    .ARM.Collect$$rtentry$$00000004
    __rt_entry
    __rt_entry_presh_1
    __rt_entry_sh
        0x080001a8:    f000f88a    ....    BL       __user_setup_stackheap ; 0x80002c0
        0x080001ac:    4611        .F      MOV      r1,r2
    .ARM.Collect$$rtentry$$00000009
    .ARM.Collect$$rtentry$$0000000A
    __rt_entry_li
    __rt_entry_postsh_1
        0x080001ae:    f7fffff7    ....    BL       __rt_lib_init ; 0x80001a0
    .ARM.Collect$$rtentry$$0000000C
    .ARM.Collect$$rtentry$$0000000D
    __rt_entry_main
    __rt_entry_postli_1
        0x080001b2:    f003fb15    ....    BL       main ; 0x80037e0
        0x080001b6:    f000f8a8    ....    BL       exit ; 0x800030a
    .ARM.Collect$$rtexit$$00000000
    __rt_exit
        0x080001ba:    b403        ..      PUSH     {r0,r1}
    .ARM.Collect$$rtexit$$00000002
    .ARM.Collect$$rtexit$$00000003
    __rt_exit_ls
    __rt_exit_prels_1
        0x080001bc:    f7fffff2    ....    BL       __rt_lib_shutdown ; 0x80001a4
    .ARM.Collect$$rtexit$$00000004
    __rt_exit_exit
        0x080001c0:    bc03        ..      POP      {r0,r1}
        0x080001c2:    f000f8af    ....    BL       _sys_exit ; 0x8000324
        0x080001c6:    0000        ..      MOVS     r0,r0
    .text
    Reset_Handler
        0x080001c8:    4809        .H      LDR      r0,[pc,#36] ; [0x80001f0] = 0x8001e8f
        0x080001ca:    4780        .G      BLX      r0
        0x080001cc:    4809        .H      LDR      r0,[pc,#36] ; [0x80001f4] = 0x80000ed
        0x080001ce:    4700        .G      BX       r0
        0x080001d0:    e7fe        ..      B        0x80001d0 ; Reset_Handler + 8
        0x080001d2:    e7fe        ..      B        0x80001d2 ; Reset_Handler + 10
        0x080001d4:    e7fe        ..      B        0x80001d4 ; Reset_Handler + 12
        0x080001d6:    e7fe        ..      B        0x80001d6 ; Reset_Handler + 14
        0x080001d8:    e7fe        ..      B        0x80001d8 ; Reset_Handler + 16
        0x080001da:    e7fe        ..      B        0x80001da ; Reset_Handler + 18
        0x080001dc:    e7fe        ..      B        0x80001dc ; Reset_Handler + 20
        0x080001de:    e7fe        ..      B        0x80001de ; Reset_Handler + 22
        0x080001e0:    e7fe        ..      B        0x80001e0 ; Reset_Handler + 24
    ADC1_2_IRQHandler
    CAN1_RX1_IRQHandler
    CAN1_SCE_IRQHandler
    DMA1_Channel1_IRQHandler
    DMA1_Channel2_IRQHandler
    DMA1_Channel3_IRQHandler
    DMA1_Channel4_IRQHandler
    DMA1_Channel5_IRQHandler
    DMA1_Channel6_IRQHandler
    DMA1_Channel7_IRQHandler
    EXTI0_IRQHandler
    EXTI15_10_IRQHandler
    EXTI1_IRQHandler
    EXTI2_IRQHandler
    EXTI3_IRQHandler
    EXTI4_IRQHandler
    EXTI9_5_IRQHandler
    FLASH_IRQHandler
    I2C1_ER_IRQHandler
    I2C1_EV_IRQHandler
    I2C2_ER_IRQHandler
    I2C2_EV_IRQHandler
    PVD_IRQHandler
    RCC_IRQHandler
    RTC_Alarm_IRQHandler
    RTC_IRQHandler
    SPI1_IRQHandler
    SPI2_IRQHandler
    TAMPER_IRQHandler
    TIM1_BRK_IRQHandler
    TIM1_CC_IRQHandler
    TIM1_TRG_COM_IRQHandler
    TIM1_UP_IRQHandler
    TIM2_IRQHandler
    TIM3_IRQHandler
    TIM4_IRQHandler
    USBWakeUp_IRQHandler
    USB_HP_CAN1_TX_IRQHandler
    WWDG_IRQHandler
        0x080001e2:    e7fe        ..      B        ADC1_2_IRQHandler ; 0x80001e2
    __user_initial_stackheap
        0x080001e4:    4804        .H      LDR      r0,[pc,#16] ; [0x80001f8] = 0x20000fa0
        0x080001e6:    4905        .I      LDR      r1,[pc,#20] ; [0x80001fc] = 0x200015a0
        0x080001e8:    4a05        .J      LDR      r2,[pc,#20] ; [0x8000200] = 0x200011a0
        0x080001ea:    4b06        .K      LDR      r3,[pc,#24] ; [0x8000204] = 0x200011a0
        0x080001ec:    4770        pG      BX       lr
    $d
        0x080001ee:    0000        ..      DCW    0
        0x080001f0:    08001e8f    ....    DCD    134225551
        0x080001f4:    080000ed    ....    DCD    134217965
        0x080001f8:    20000fa0    ...     DCD    536874912
        0x080001fc:    200015a0    ...     DCD    536876448
        0x08000200:    200011a0    ...     DCD    536875424
        0x08000204:    200011a0    ...     DCD    536875424
    $t
    .text
    __aeabi_memcpy4
    __aeabi_memcpy8
    __rt_memcpy_w
        0x08000208:    b510        ..      PUSH     {r4,lr}
        0x0800020a:    3a20         :      SUBS     r2,r2,#0x20
        0x0800020c:    f0c0800b    ....    BCC.W    0x8000226 ; __aeabi_memcpy4 + 30
        0x08000210:    e8b15018    ...P    LDM      r1!,{r3,r4,r12,lr}
        0x08000214:    3a20         :      SUBS     r2,r2,#0x20
        0x08000216:    e8a05018    ...P    STM      r0!,{r3,r4,r12,lr}
        0x0800021a:    e8b15018    ...P    LDM      r1!,{r3,r4,r12,lr}
        0x0800021e:    e8a05018    ...P    STM      r0!,{r3,r4,r12,lr}
        0x08000222:    f4bfaff5    ....    BCS.W    0x8000210 ; __aeabi_memcpy4 + 8
        0x08000226:    ea5f7c02    _..|    LSLS     r12,r2,#28
        0x0800022a:    bf24        $.      ITT      CS
        0x0800022c:    e8b15018    ...P    LDMCS    r1!,{r3,r4,r12,lr}
        0x08000230:    e8a05018    ...P    STMCS    r0!,{r3,r4,r12,lr}
        0x08000234:    bf44        D.      ITT      MI
        0x08000236:    c918        ..      LDMMI    r1!,{r3,r4}
        0x08000238:    c018        ..      STMMI    r0!,{r3,r4}
        0x0800023a:    e8bd4010    ...@    POP      {r4,lr}
        0x0800023e:    ea5f7c82    _..|    LSLS     r12,r2,#30
        0x08000242:    bf24        $.      ITT      CS
        0x08000244:    f8513b04    Q..;    LDRCS    r3,[r1],#4
        0x08000248:    f8403b04    @..;    STRCS    r3,[r0],#4
        0x0800024c:    bf08        ..      IT       EQ
        0x0800024e:    4770        pG      BXEQ     lr
    _memcpy_lastbytes_aligned
        0x08000250:    07d2        ..      LSLS     r2,r2,#31
        0x08000252:    bf28        (.      IT       CS
        0x08000254:    f8313b02    1..;    LDRHCS   r3,[r1],#2
        0x08000258:    bf48        H.      IT       MI
        0x0800025a:    f8112b01    ...+    LDRBMI   r2,[r1],#1
        0x0800025e:    bf28        (.      IT       CS
        0x08000260:    f8203b02     ..;    STRHCS   r3,[r0],#2
        0x08000264:    bf48        H.      IT       MI
        0x08000266:    f8002b01    ...+    STRBMI   r2,[r0],#1
        0x0800026a:    4770        pG      BX       lr
    .text
    __aeabi_memclr4
    __aeabi_memclr8
    __rt_memclr_w
        0x0800026c:    f04f0200    O...    MOV      r2,#0
    _memset_w
        0x08000270:    b500        ..      PUSH     {lr}
        0x08000272:    4613        .F      MOV      r3,r2
        0x08000274:    4694        .F      MOV      r12,r2
        0x08000276:    4696        .F      MOV      lr,r2
        0x08000278:    3920         9      SUBS     r1,r1,#0x20
        0x0800027a:    bf22        ".      ITTT     CS
        0x0800027c:    e8a0500c    ...P    STMCS    r0!,{r2,r3,r12,lr}
        0x08000280:    e8a0500c    ...P    STMCS    r0!,{r2,r3,r12,lr}
        0x08000284:    f1b10120    .. .    SUBSCS   r1,r1,#0x20
        0x08000288:    f4bfaff7    ....    BCS.W    0x800027a ; _memset_w + 10
        0x0800028c:    0709        ..      LSLS     r1,r1,#28
        0x0800028e:    bf28        (.      IT       CS
        0x08000290:    e8a0500c    ...P    STMCS    r0!,{r2,r3,r12,lr}
        0x08000294:    bf48        H.      IT       MI
        0x08000296:    c00c        ..      STMMI    r0!,{r2,r3}
        0x08000298:    f85deb04    ]...    POP      {lr}
        0x0800029c:    0089        ..      LSLS     r1,r1,#2
        0x0800029e:    bf28        (.      IT       CS
        0x080002a0:    f8402b04    @..+    STRCS    r2,[r0],#4
        0x080002a4:    bf08        ..      IT       EQ
        0x080002a6:    4770        pG      BXEQ     lr
        0x080002a8:    bf48        H.      IT       MI
        0x080002aa:    f8202b02     ..+    STRHMI   r2,[r0],#2
        0x080002ae:    f0114f80    ...O    TST      r1,#0x40000000
        0x080002b2:    bf18        ..      IT       NE
        0x080002b4:    f8002b01    ...+    STRBNE   r2,[r0],#1
        0x080002b8:    4770        pG      BX       lr
    .text
    __use_two_region_memory
        0x080002ba:    4770        pG      BX       lr
    __rt_heap_escrow$2region
        0x080002bc:    4770        pG      BX       lr
    __rt_heap_expand$2region
        0x080002be:    4770        pG      BX       lr
    .text
    __user_setup_stackheap
        0x080002c0:    4675        uF      MOV      r5,lr
        0x080002c2:    f000f82b    ..+.    BL       __user_libspace ; 0x800031c
        0x080002c6:    46ae        .F      MOV      lr,r5
        0x080002c8:    0005        ..      MOVS     r5,r0
        0x080002ca:    4669        iF      MOV      r1,sp
        0x080002cc:    4653        SF      MOV      r3,r10
        0x080002ce:    f0200007     ...    BIC      r0,r0,#7
        0x080002d2:    4685        .F      MOV      sp,r0
        0x080002d4:    b018        ..      ADD      sp,sp,#0x60
        0x080002d6:    b520         .      PUSH     {r5,lr}
        0x080002d8:    f7ffff84    ....    BL       __user_initial_stackheap ; 0x80001e4
        0x080002dc:    e8bd4020    .. @    POP      {r5,lr}
        0x080002e0:    f04f0600    O...    MOV      r6,#0
        0x080002e4:    f04f0700    O...    MOV      r7,#0
        0x080002e8:    f04f0800    O...    MOV      r8,#0
        0x080002ec:    f04f0b00    O...    MOV      r11,#0
        0x080002f0:    f0210107    !...    BIC      r1,r1,#7
        0x080002f4:    46ac        .F      MOV      r12,r5
        0x080002f6:    e8ac09c0    ....    STM      r12!,{r6-r8,r11}
        0x080002fa:    e8ac09c0    ....    STM      r12!,{r6-r8,r11}
        0x080002fe:    e8ac09c0    ....    STM      r12!,{r6-r8,r11}
        0x08000302:    e8ac09c0    ....    STM      r12!,{r6-r8,r11}
        0x08000306:    468d        .F      MOV      sp,r1
        0x08000308:    4770        pG      BX       lr
    .text
    exit
        0x0800030a:    b510        ..      PUSH     {r4,lr}
        0x0800030c:    4604        .F      MOV      r4,r0
        0x0800030e:    f3af8000    ....    NOP.W    
        0x08000312:    4620         F      MOV      r0,r4
        0x08000314:    e8bd4010    ...@    POP      {r4,lr}
        0x08000318:    f7ffbf4f    ..O.    B.W      __rt_exit ; 0x80001ba
    .text
    __user_libspace
    __user_perproc_libspace
    __user_perthread_libspace
        0x0800031c:    4800        .H      LDR      r0,[pc,#0] ; [0x8000320] = 0x20000f40
        0x0800031e:    4770        pG      BX       lr
    $d
        0x08000320:    20000f40    @..     DCD    536874816
    $t
    .text
    _sys_exit
        0x08000324:    4901        .I      LDR      r1,[pc,#4] ; [0x800032c] = 0x20026
        0x08000326:    2018        .       MOVS     r0,#0x18
        0x08000328:    beab        ..      BKPT     #0xab
        0x0800032a:    e7fe        ..      B        0x800032a ; _sys_exit + 6
    $d
        0x0800032c:    00020026    &...    DCD    131110
    $t
    .text
    __I$use$semihosting
    __use_no_semihosting_swi
        0x08000330:    4770        pG      BX       lr
    i.BusFault_Handler
    .text
    BusFault_Handler
    __semihosting_library_function
        0x08000332:    e7fe        ..      B        BusFault_Handler ; 0x8000332
    i.DebugMon_Handler
    DebugMon_Handler
        0x08000334:    4770        pG      BX       lr
    i.Error_Handler
    Error_Handler
        0x08000336:    b672        r.      CPSID    i
        0x08000338:    e7fe        ..      B        0x8000338 ; Error_Handler + 2
        0x0800033a:    0000        ..      MOVS     r0,r0
    i.HAL_GPIO_Init
    HAL_GPIO_Init
        0x0800033c:    e92d4ff8    -..O    PUSH     {r3-r11,lr}
        0x08000340:    f8df91b8    ....    LDR      r9,[pc,#440] ; [0x80004fc] = 0x40010400
        0x08000344:    2400        .$      MOVS     r4,#0
        0x08000346:    f1090a04    ....    ADD      r10,r9,#4
        0x0800034a:    f10a0b04    ....    ADD      r11,r10,#4
        0x0800034e:    4623        #F      MOV      r3,r4
        0x08000350:    270f        .'      MOVS     r7,#0xf
        0x08000352:    f10b0e04    ....    ADD      lr,r11,#4
        0x08000356:    e0c9        ..      B        0x80004ec ; HAL_GPIO_Init + 432
        0x08000358:    2501        .%      MOVS     r5,#1
        0x0800035a:    40a5        .@      LSLS     r5,r5,r4
        0x0800035c:    402a        *@      ANDS     r2,r2,r5
        0x0800035e:    42aa        .B      CMP      r2,r5
        0x08000360:    d17d        }.      BNE      0x800045e ; HAL_GPIO_Init + 290
        0x08000362:    4e67        gN      LDR      r6,[pc,#412] ; [0x8000500] = 0x10110000
        0x08000364:    f8d1c004    ....    LDR      r12,[r1,#4]
        0x08000368:    ebac0806    ....    SUB      r8,r12,r6
        0x0800036c:    45b4        .E      CMP      r12,r6
        0x0800036e:    d032        2.      BEQ      0x80003d6 ; HAL_GPIO_Init + 154
        0x08000370:    dc14        ..      BGT      0x800039c ; HAL_GPIO_Init + 96
        0x08000372:    f1bc0f03    ....    CMP      r12,#3
        0x08000376:    d03a        :.      BEQ      0x80003ee ; HAL_GPIO_Init + 178
        0x08000378:    dc09        ..      BGT      0x800038e ; HAL_GPIO_Init + 82
        0x0800037a:    f1bc0f00    ....    CMP      r12,#0
        0x0800037e:    d02a        *.      BEQ      0x80003d6 ; HAL_GPIO_Init + 154
        0x08000380:    f1bc0f01    ....    CMP      r12,#1
        0x08000384:    d01c        ..      BEQ      0x80003c0 ; HAL_GPIO_Init + 132
        0x08000386:    f1bc0f02    ....    CMP      r12,#2
        0x0800038a:    d131        1.      BNE      0x80003f0 ; HAL_GPIO_Init + 180
        0x0800038c:    e01d        ..      B        0x80003ca ; HAL_GPIO_Init + 142
        0x0800038e:    f1bc0f11    ....    CMP      r12,#0x11
        0x08000392:    d017        ..      BEQ      0x80003c4 ; HAL_GPIO_Init + 136
        0x08000394:    f1bc0f12    ....    CMP      r12,#0x12
        0x08000398:    d12a        *.      BNE      0x80003f0 ; HAL_GPIO_Init + 180
        0x0800039a:    e019        ..      B        0x80003d0 ; HAL_GPIO_Init + 148
        0x0800039c:    f5b81f88    ....    CMP      r8,#0x110000
        0x080003a0:    d019        ..      BEQ      0x80003d6 ; HAL_GPIO_Init + 154
        0x080003a2:    dc06        ..      BGT      0x80003b2 ; HAL_GPIO_Init + 118
        0x080003a4:    f5b83f80    ...?    CMP      r8,#0x10000
        0x080003a8:    d015        ..      BEQ      0x80003d6 ; HAL_GPIO_Init + 154
        0x080003aa:    f5b81f80    ....    CMP      r8,#0x100000
        0x080003ae:    d11f        ..      BNE      0x80003f0 ; HAL_GPIO_Init + 180
        0x080003b0:    e011        ..      B        0x80003d6 ; HAL_GPIO_Init + 154
        0x080003b2:    f5b81f00    ....    CMP      r8,#0x200000
        0x080003b6:    d00e        ..      BEQ      0x80003d6 ; HAL_GPIO_Init + 154
        0x080003b8:    f5b81f04    ....    CMP      r8,#0x210000
        0x080003bc:    d118        ..      BNE      0x80003f0 ; HAL_GPIO_Init + 180
        0x080003be:    e00a        ..      B        0x80003d6 ; HAL_GPIO_Init + 154
        0x080003c0:    68cb        .h      LDR      r3,[r1,#0xc]
        0x080003c2:    e015        ..      B        0x80003f0 ; HAL_GPIO_Init + 180
        0x080003c4:    68cb        .h      LDR      r3,[r1,#0xc]
        0x080003c6:    1d1b        ..      ADDS     r3,r3,#4
        0x080003c8:    e012        ..      B        0x80003f0 ; HAL_GPIO_Init + 180
        0x080003ca:    68cb        .h      LDR      r3,[r1,#0xc]
        0x080003cc:    3308        .3      ADDS     r3,r3,#8
        0x080003ce:    e00f        ..      B        0x80003f0 ; HAL_GPIO_Init + 180
        0x080003d0:    68cb        .h      LDR      r3,[r1,#0xc]
        0x080003d2:    330c        .3      ADDS     r3,r3,#0xc
        0x080003d4:    e00c        ..      B        0x80003f0 ; HAL_GPIO_Init + 180
        0x080003d6:    688b        .h      LDR      r3,[r1,#8]
        0x080003d8:    b12b        +.      CBZ      r3,0x80003e6 ; HAL_GPIO_Init + 170
        0x080003da:    2b01        .+      CMP      r3,#1
        0x080003dc:    f04f0308    O...    MOV      r3,#8
        0x080003e0:    d003        ..      BEQ      0x80003ea ; HAL_GPIO_Init + 174
        0x080003e2:    6145        Ea      STR      r5,[r0,#0x14]
        0x080003e4:    e004        ..      B        0x80003f0 ; HAL_GPIO_Init + 180
        0x080003e6:    2304        .#      MOVS     r3,#4
        0x080003e8:    e002        ..      B        0x80003f0 ; HAL_GPIO_Init + 180
        0x080003ea:    6105        .a      STR      r5,[r0,#0x10]
        0x080003ec:    e000        ..      B        0x80003f0 ; HAL_GPIO_Init + 180
        0x080003ee:    2300        .#      MOVS     r3,#0
        0x080003f0:    2aff        .*      CMP      r2,#0xff
        0x080003f2:    d801        ..      BHI      0x80003f8 ; HAL_GPIO_Init + 188
        0x080003f4:    4606        .F      MOV      r6,r0
        0x080003f6:    e001        ..      B        0x80003fc ; HAL_GPIO_Init + 192
        0x080003f8:    f1000604    ....    ADD      r6,r0,#4
        0x080003fc:    ea4f0584    O...    LSL      r5,r4,#2
        0x08000400:    d901        ..      BLS      0x8000406 ; HAL_GPIO_Init + 202
        0x08000402:    f1a50520    .. .    SUB      r5,r5,#0x20
        0x08000406:    f8d68000    ....    LDR      r8,[r6,#0]
        0x0800040a:    fa07fc05    ....    LSL      r12,r7,r5
        0x0800040e:    ea28080c    (...    BIC      r8,r8,r12
        0x08000412:    fa03f505    ....    LSL      r5,r3,r5
        0x08000416:    ea480805    H...    ORR      r8,r8,r5
        0x0800041a:    f8c68000    ....    STR      r8,[r6,#0]
        0x0800041e:    684d        Mh      LDR      r5,[r1,#4]
        0x08000420:    00ed        ..      LSLS     r5,r5,#3
        0x08000422:    d562        b.      BPL      0x80004ea ; HAL_GPIO_Init + 430
        0x08000424:    4d37        7M      LDR      r5,[pc,#220] ; [0x8000504] = 0x40021000
        0x08000426:    69ae        .i      LDR      r6,[r5,#0x18]
        0x08000428:    f0460601    F...    ORR      r6,r6,#1
        0x0800042c:    61ae        .a      STR      r6,[r5,#0x18]
        0x0800042e:    69ad        .i      LDR      r5,[r5,#0x18]
        0x08000430:    f0240603    $...    BIC      r6,r4,#3
        0x08000434:    f0050501    ....    AND      r5,r5,#1
        0x08000438:    9500        ..      STR      r5,[sp,#0]
        0x0800043a:    4d33        3M      LDR      r5,[pc,#204] ; [0x8000508] = 0x40010000
        0x0800043c:    eb060c05    ....    ADD      r12,r6,r5
        0x08000440:    f8dc5008    ...P    LDR      r5,[r12,#8]
        0x08000444:    07a6        ..      LSLS     r6,r4,#30
        0x08000446:    0f36        6.      LSRS     r6,r6,#28
        0x08000448:    fa07f806    ....    LSL      r8,r7,r6
        0x0800044c:    ea250508    %...    BIC      r5,r5,r8
        0x08000450:    f8df80b8    ....    LDR      r8,[pc,#184] ; [0x800050c] = 0x40010800
        0x08000454:    4540        @E      CMP      r0,r8
        0x08000456:    d103        ..      BNE      0x8000460 ; HAL_GPIO_Init + 292
        0x08000458:    f04f0800    O...    MOV      r8,#0
        0x0800045c:    e017        ..      B        0x800048e ; HAL_GPIO_Init + 338
        0x0800045e:    e044        D.      B        0x80004ea ; HAL_GPIO_Init + 430
        0x08000460:    f8df80ac    ....    LDR      r8,[pc,#172] ; [0x8000510] = 0x40010c00
        0x08000464:    4540        @E      CMP      r0,r8
        0x08000466:    d102        ..      BNE      0x800046e ; HAL_GPIO_Init + 306
        0x08000468:    f04f0801    O...    MOV      r8,#1
        0x0800046c:    e00f        ..      B        0x800048e ; HAL_GPIO_Init + 338
        0x0800046e:    f8df80a4    ....    LDR      r8,[pc,#164] ; [0x8000514] = 0x40011000
        0x08000472:    4540        @E      CMP      r0,r8
        0x08000474:    d102        ..      BNE      0x800047c ; HAL_GPIO_Init + 320
        0x08000476:    f04f0802    O...    MOV      r8,#2
        0x0800047a:    e008        ..      B        0x800048e ; HAL_GPIO_Init + 338
        0x0800047c:    f8df8098    ....    LDR      r8,[pc,#152] ; [0x8000518] = 0x40011400
        0x08000480:    4540        @E      CMP      r0,r8
        0x08000482:    d102        ..      BNE      0x800048a ; HAL_GPIO_Init + 334
        0x08000484:    f04f0803    O...    MOV      r8,#3
        0x08000488:    e001        ..      B        0x800048e ; HAL_GPIO_Init + 338
        0x0800048a:    f04f0804    O...    MOV      r8,#4
        0x0800048e:    fa08f806    ....    LSL      r8,r8,r6
        0x08000492:    ea480805    H...    ORR      r8,r8,r5
        0x08000496:    f8cc8008    ....    STR      r8,[r12,#8]
        0x0800049a:    684d        Mh      LDR      r5,[r1,#4]
        0x0800049c:    f8d96000    ...`    LDR      r6,[r9,#0]
        0x080004a0:    03ed        ..      LSLS     r5,r5,#15
        0x080004a2:    464d        MF      MOV      r5,r9
        0x080004a4:    d501        ..      BPL      0x80004aa ; HAL_GPIO_Init + 366
        0x080004a6:    4316        .C      ORRS     r6,r6,r2
        0x080004a8:    e000        ..      B        0x80004ac ; HAL_GPIO_Init + 368
        0x080004aa:    4396        .C      BICS     r6,r6,r2
        0x080004ac:    602e        .`      STR      r6,[r5,#0]
        0x080004ae:    684d        Mh      LDR      r5,[r1,#4]
        0x080004b0:    f8da6000    ...`    LDR      r6,[r10,#0]
        0x080004b4:    03ad        ..      LSLS     r5,r5,#14
        0x080004b6:    4655        UF      MOV      r5,r10
        0x080004b8:    d501        ..      BPL      0x80004be ; HAL_GPIO_Init + 386
        0x080004ba:    4316        .C      ORRS     r6,r6,r2
        0x080004bc:    e000        ..      B        0x80004c0 ; HAL_GPIO_Init + 388
        0x080004be:    4396        .C      BICS     r6,r6,r2
        0x080004c0:    602e        .`      STR      r6,[r5,#0]
        0x080004c2:    684d        Mh      LDR      r5,[r1,#4]
        0x080004c4:    f8db6000    ...`    LDR      r6,[r11,#0]
        0x080004c8:    02ed        ..      LSLS     r5,r5,#11
        0x080004ca:    465d        ]F      MOV      r5,r11
        0x080004cc:    d501        ..      BPL      0x80004d2 ; HAL_GPIO_Init + 406
        0x080004ce:    4316        .C      ORRS     r6,r6,r2
        0x080004d0:    e000        ..      B        0x80004d4 ; HAL_GPIO_Init + 408
        0x080004d2:    4396        .C      BICS     r6,r6,r2
        0x080004d4:    602e        .`      STR      r6,[r5,#0]
        0x080004d6:    684d        Mh      LDR      r5,[r1,#4]
        0x080004d8:    f8de6000    ...`    LDR      r6,[lr,#0]
        0x080004dc:    02ad        ..      LSLS     r5,r5,#10
        0x080004de:    4675        uF      MOV      r5,lr
        0x080004e0:    d501        ..      BPL      0x80004e6 ; HAL_GPIO_Init + 426
        0x080004e2:    4316        .C      ORRS     r6,r6,r2
        0x080004e4:    e000        ..      B        0x80004e8 ; HAL_GPIO_Init + 428
        0x080004e6:    4396        .C      BICS     r6,r6,r2
        0x080004e8:    602e        .`      STR      r6,[r5,#0]
        0x080004ea:    1c64        d.      ADDS     r4,r4,#1
        0x080004ec:    680d        .h      LDR      r5,[r1,#0]
        0x080004ee:    462a        *F      MOV      r2,r5
        0x080004f0:    40e5        .@      LSRS     r5,r5,r4
        0x080004f2:    f47faf31    ..1.    BNE      0x8000358 ; HAL_GPIO_Init + 28
        0x080004f6:    e8bd8ff8    ....    POP      {r3-r11,pc}
    $d
        0x080004fa:    0000        ..      DCW    0
        0x080004fc:    40010400    ...@    DCD    1073808384
        0x08000500:    10110000    ....    DCD    269549568
        0x08000504:    40021000    ...@    DCD    1073876992
        0x08000508:    40010000    ...@    DCD    1073807360
        0x0800050c:    40010800    ...@    DCD    1073809408
        0x08000510:    40010c00    ...@    DCD    1073810432
        0x08000514:    40011000    ...@    DCD    1073811456
        0x08000518:    40011400    ...@    DCD    1073812480
    $t
    i.HAL_GetTick
    HAL_GetTick
        0x0800051c:    4801        .H      LDR      r0,[pc,#4] ; [0x8000524] = 0x20000068
        0x0800051e:    6880        .h      LDR      r0,[r0,#8]
        0x08000520:    4770        pG      BX       lr
    $d
        0x08000522:    0000        ..      DCW    0
        0x08000524:    20000068    h..     DCD    536871016
    $t
    i.HAL_IncTick
    HAL_IncTick
        0x08000528:    4802        .H      LDR      r0,[pc,#8] ; [0x8000534] = 0x20000068
        0x0800052a:    6881        .h      LDR      r1,[r0,#8]
        0x0800052c:    7802        .x      LDRB     r2,[r0,#0]
        0x0800052e:    4411        .D      ADD      r1,r1,r2
        0x08000530:    6081        .`      STR      r1,[r0,#8]
        0x08000532:    4770        pG      BX       lr
    $d
        0x08000534:    20000068    h..     DCD    536871016
    $t
    i.HAL_Init
    HAL_Init
        0x08000538:    4807        .H      LDR      r0,[pc,#28] ; [0x8000558] = 0x40022000
        0x0800053a:    b510        ..      PUSH     {r4,lr}
        0x0800053c:    6801        .h      LDR      r1,[r0,#0]
        0x0800053e:    f0410110    A...    ORR      r1,r1,#0x10
        0x08000542:    6001        .`      STR      r1,[r0,#0]
        0x08000544:    2003        .       MOVS     r0,#3
        0x08000546:    f000f875    ..u.    BL       HAL_NVIC_SetPriorityGrouping ; 0x8000634
        0x0800054a:    200f        .       MOVS     r0,#0xf
        0x0800054c:    f000f806    ....    BL       HAL_InitTick ; 0x800055c
        0x08000550:    f000f824    ..$.    BL       HAL_MspInit ; 0x800059c
        0x08000554:    2000        .       MOVS     r0,#0
        0x08000556:    bd10        ..      POP      {r4,pc}
    $d
        0x08000558:    40022000    . .@    DCD    1073881088
    $t
    i.HAL_InitTick
    HAL_InitTick
        0x0800055c:    b570        p.      PUSH     {r4-r6,lr}
        0x0800055e:    4d0d        .M      LDR      r5,[pc,#52] ; [0x8000594] = 0x20000068
        0x08000560:    4604        .F      MOV      r4,r0
        0x08000562:    f44f717a    O.zq    MOV      r1,#0x3e8
        0x08000566:    7828        (x      LDRB     r0,[r5,#0]
        0x08000568:    fbb1f0f0    ....    UDIV     r0,r1,r0
        0x0800056c:    490a        .I      LDR      r1,[pc,#40] ; [0x8000598] = 0x20000074
        0x0800056e:    6809        .h      LDR      r1,[r1,#0]
        0x08000570:    fbb1f0f0    ....    UDIV     r0,r1,r0
        0x08000574:    f001f830    ..0.    BL       HAL_SYSTICK_Config ; 0x80015d8
        0x08000578:    b948        H.      CBNZ     r0,0x800058e ; HAL_InitTick + 50
        0x0800057a:    2c10        .,      CMP      r4,#0x10
        0x0800057c:    d207        ..      BCS      0x800058e ; HAL_InitTick + 50
        0x0800057e:    2200        ."      MOVS     r2,#0
        0x08000580:    4621        !F      MOV      r1,r4
        0x08000582:    1e50        P.      SUBS     r0,r2,#1
        0x08000584:    f000f836    ..6.    BL       HAL_NVIC_SetPriority ; 0x80005f4
        0x08000588:    2000        .       MOVS     r0,#0
        0x0800058a:    606c        l`      STR      r4,[r5,#4]
        0x0800058c:    bd70        p.      POP      {r4-r6,pc}
        0x0800058e:    2001        .       MOVS     r0,#1
        0x08000590:    bd70        p.      POP      {r4-r6,pc}
    $d
        0x08000592:    0000        ..      DCW    0
        0x08000594:    20000068    h..     DCD    536871016
        0x08000598:    20000074    t..     DCD    536871028
    $t
    i.HAL_MspInit
    HAL_MspInit
        0x0800059c:    480c        .H      LDR      r0,[pc,#48] ; [0x80005d0] = 0x40021000
        0x0800059e:    b508        ..      PUSH     {r3,lr}
        0x080005a0:    6981        .i      LDR      r1,[r0,#0x18]
        0x080005a2:    f0410101    A...    ORR      r1,r1,#1
        0x080005a6:    6181        .a      STR      r1,[r0,#0x18]
        0x080005a8:    6981        .i      LDR      r1,[r0,#0x18]
        0x080005aa:    f0010101    ....    AND      r1,r1,#1
        0x080005ae:    9100        ..      STR      r1,[sp,#0]
        0x080005b0:    69c1        .i      LDR      r1,[r0,#0x1c]
        0x080005b2:    f0415180    A..Q    ORR      r1,r1,#0x10000000
        0x080005b6:    61c1        .a      STR      r1,[r0,#0x1c]
        0x080005b8:    69c0        .i      LDR      r0,[r0,#0x1c]
        0x080005ba:    f0005080    ...P    AND      r0,r0,#0x10000000
        0x080005be:    9000        ..      STR      r0,[sp,#0]
        0x080005c0:    4804        .H      LDR      r0,[pc,#16] ; [0x80005d4] = 0x40010000
        0x080005c2:    6841        Ah      LDR      r1,[r0,#4]
        0x080005c4:    f02161e0    !..a    BIC      r1,r1,#0x7000000
        0x080005c8:    f0417100    A..q    ORR      r1,r1,#0x2000000
        0x080005cc:    6041        A`      STR      r1,[r0,#4]
        0x080005ce:    bd08        ..      POP      {r3,pc}
    $d
        0x080005d0:    40021000    ...@    DCD    1073876992
        0x080005d4:    40010000    ...@    DCD    1073807360
    $t
    i.HAL_NVIC_EnableIRQ
    HAL_NVIC_EnableIRQ
        0x080005d8:    2800        .(      CMP      r0,#0
        0x080005da:    db09        ..      BLT      0x80005f0 ; HAL_NVIC_EnableIRQ + 24
        0x080005dc:    f000021f    ....    AND      r2,r0,#0x1f
        0x080005e0:    2101        .!      MOVS     r1,#1
        0x080005e2:    4091        .@      LSLS     r1,r1,r2
        0x080005e4:    0940        @.      LSRS     r0,r0,#5
        0x080005e6:    0080        ..      LSLS     r0,r0,#2
        0x080005e8:    f10020e0    ...     ADD      r0,r0,#0xe000e000
        0x080005ec:    f8c01100    ....    STR      r1,[r0,#0x100]
        0x080005f0:    4770        pG      BX       lr
        0x080005f2:    0000        ..      MOVS     r0,r0
    i.HAL_NVIC_SetPriority
    HAL_NVIC_SetPriority
        0x080005f4:    b4f0        ..      PUSH     {r4-r7}
        0x080005f6:    4b0e        .K      LDR      r3,[pc,#56] ; [0x8000630] = 0xe000ed0c
        0x080005f8:    681b        .h      LDR      r3,[r3,#0]
        0x080005fa:    460c        .F      MOV      r4,r1
        0x080005fc:    f3c32302    ...#    UBFX     r3,r3,#8,#3
        0x08000600:    f1c30507    ....    RSB      r5,r3,#7
        0x08000604:    2d04        .-      CMP      r5,#4
        0x08000606:    d900        ..      BLS      0x800060a ; HAL_NVIC_SetPriority + 22
        0x08000608:    2504        .%      MOVS     r5,#4
        0x0800060a:    1d19        ..      ADDS     r1,r3,#4
        0x0800060c:    2907        .)      CMP      r1,#7
        0x0800060e:    d201        ..      BCS      0x8000614 ; HAL_NVIC_SetPriority + 32
        0x08000610:    2300        .#      MOVS     r3,#0
        0x08000612:    e000        ..      B        0x8000616 ; HAL_NVIC_SetPriority + 34
        0x08000614:    1edb        ..      SUBS     r3,r3,#3
        0x08000616:    2601        .&      MOVS     r6,#1
        0x08000618:    fa06f105    ....    LSL      r1,r6,r5
        0x0800061c:    1e49        I.      SUBS     r1,r1,#1
        0x0800061e:    4021        !@      ANDS     r1,r1,r4
        0x08000620:    4099        .@      LSLS     r1,r1,r3
        0x08000622:    409e        .@      LSLS     r6,r6,r3
        0x08000624:    1e76        v.      SUBS     r6,r6,#1
        0x08000626:    4016        .@      ANDS     r6,r6,r2
        0x08000628:    4331        1C      ORRS     r1,r1,r6
        0x0800062a:    bcf0        ..      POP      {r4-r7}
        0x0800062c:    f003b8c8    ....    B.W      __NVIC_SetPriority ; 0x80037c0
    $d
        0x08000630:    e000ed0c    ....    DCD    3758157068
    $t
    i.HAL_NVIC_SetPriorityGrouping
    HAL_NVIC_SetPriorityGrouping
        0x08000634:    4906        .I      LDR      r1,[pc,#24] ; [0x8000650] = 0xe000ed0c
        0x08000636:    f0000207    ....    AND      r2,r0,#7
        0x0800063a:    6808        .h      LDR      r0,[r1,#0]
        0x0800063c:    f64f03ff    O...    MOV      r3,#0xf8ff
        0x08000640:    4018        .@      ANDS     r0,r0,r3
        0x08000642:    ea402002    @..     ORR      r0,r0,r2,LSL #8
        0x08000646:    4a03        .J      LDR      r2,[pc,#12] ; [0x8000654] = 0x5fa0000
        0x08000648:    4310        .C      ORRS     r0,r0,r2
        0x0800064a:    6008        .`      STR      r0,[r1,#0]
        0x0800064c:    4770        pG      BX       lr
    $d
        0x0800064e:    0000        ..      DCW    0
        0x08000650:    e000ed0c    ....    DCD    3758157068
        0x08000654:    05fa0000    ....    DCD    100270080
    $t
    i.HAL_PCDEx_PMAConfig
    HAL_PCDEx_PMAConfig
        0x08000658:    b510        ..      PUSH     {r4,lr}
        0x0800065a:    060c        ..      LSLS     r4,r1,#24
        0x0800065c:    d507        ..      BPL      0x800066e ; HAL_PCDEx_PMAConfig + 22
        0x0800065e:    f0010107    ....    AND      r1,r1,#7
        0x08000662:    eb010181    ....    ADD      r1,r1,r1,LSL #2
        0x08000666:    eb0000c1    ....    ADD      r0,r0,r1,LSL #3
        0x0800066a:    3028        (0      ADDS     r0,r0,#0x28
        0x0800066c:    e005        ..      B        0x800067a ; HAL_PCDEx_PMAConfig + 34
        0x0800066e:    eb010181    ....    ADD      r1,r1,r1,LSL #2
        0x08000672:    eb0000c1    ....    ADD      r0,r0,r1,LSL #3
        0x08000676:    f50070b4    ...p    ADD      r0,r0,#0x168
        0x0800067a:    b299        ..      UXTH     r1,r3
        0x0800067c:    b132        2.      CBZ      r2,0x800068c ; HAL_PCDEx_PMAConfig + 52
        0x0800067e:    2201        ."      MOVS     r2,#1
        0x08000680:    7302        .s      STRB     r2,[r0,#0xc]
        0x08000682:    8101        ..      STRH     r1,[r0,#8]
        0x08000684:    0c19        ..      LSRS     r1,r3,#16
        0x08000686:    8141        A.      STRH     r1,[r0,#0xa]
        0x08000688:    2000        .       MOVS     r0,#0
        0x0800068a:    bd10        ..      POP      {r4,pc}
        0x0800068c:    2200        ."      MOVS     r2,#0
        0x0800068e:    7302        .s      STRB     r2,[r0,#0xc]
        0x08000690:    80c1        ..      STRH     r1,[r0,#6]
        0x08000692:    e7f9        ..      B        0x8000688 ; HAL_PCDEx_PMAConfig + 48
    i.HAL_PCDEx_SetConnectionState
    HAL_PCDEx_SetConnectionState
        0x08000694:    4770        pG      BX       lr
    i.HAL_PCD_DataInStageCallback
    HAL_PCD_DataInStageCallback
        0x08000696:    eb010281    ....    ADD      r2,r1,r1,LSL #2
        0x0800069a:    eb0002c2    ....    ADD      r2,r0,r2,LSL #3
        0x0800069e:    f8d002e8    ....    LDR      r0,[r0,#0x2e8]
        0x080006a2:    6bd2        .k      LDR      r2,[r2,#0x3c]
        0x080006a4:    f001bed7    ....    B.W      USBD_LL_DataInStage ; 0x8002456
    i.HAL_PCD_DataOutStageCallback
    HAL_PCD_DataOutStageCallback
        0x080006a8:    eb010281    ....    ADD      r2,r1,r1,LSL #2
        0x080006ac:    eb0002c2    ....    ADD      r2,r0,r2,LSL #3
        0x080006b0:    f8d002e8    ....    LDR      r0,[r0,#0x2e8]
        0x080006b4:    f8d2217c    ..|!    LDR      r2,[r2,#0x17c]
        0x080006b8:    f001bf30    ..0.    B.W      USBD_LL_DataOutStage ; 0x800251c
    i.HAL_PCD_EP_Close
    HAL_PCD_EP_Close
        0x080006bc:    b570        p.      PUSH     {r4-r6,lr}
        0x080006be:    4604        .F      MOV      r4,r0
        0x080006c0:    060b        ..      LSLS     r3,r1,#24
        0x080006c2:    f0010007    ....    AND      r0,r1,#7
        0x080006c6:    eb000180    ....    ADD      r1,r0,r0,LSL #2
        0x080006ca:    eb0401c1    ....    ADD      r1,r4,r1,LSL #3
        0x080006ce:    f04f0201    O...    MOV      r2,#1
        0x080006d2:    f04f0500    O...    MOV      r5,#0
        0x080006d6:    d503        ..      BPL      0x80006e0 ; HAL_PCD_EP_Close + 36
        0x080006d8:    f8812029    ..)     STRB     r2,[r1,#0x29]
        0x080006dc:    3128        (1      ADDS     r1,r1,#0x28
        0x080006de:    e003        ..      B        0x80006e8 ; HAL_PCD_EP_Close + 44
        0x080006e0:    f8815169    ..iQ    STRB     r5,[r1,#0x169]
        0x080006e4:    f50171b4    ...q    ADD      r1,r1,#0x168
        0x080006e8:    7008        .p      STRB     r0,[r1,#0]
        0x080006ea:    f89402a8    ....    LDRB     r0,[r4,#0x2a8]
        0x080006ee:    2801        .(      CMP      r0,#1
        0x080006f0:    d008        ..      BEQ      0x8000704 ; HAL_PCD_EP_Close + 72
        0x080006f2:    f88422a8    ..."    STRB     r2,[r4,#0x2a8]
        0x080006f6:    6820         h      LDR      r0,[r4,#0]
        0x080006f8:    f002fc24    ..$.    BL       USB_DeactivateEndpoint ; 0x8002f44
        0x080006fc:    f88452a8    ...R    STRB     r5,[r4,#0x2a8]
        0x08000700:    2000        .       MOVS     r0,#0
        0x08000702:    bd70        p.      POP      {r4-r6,pc}
        0x08000704:    2002        .       MOVS     r0,#2
        0x08000706:    bd70        p.      POP      {r4-r6,pc}
    i.HAL_PCD_EP_ClrStall
    HAL_PCD_EP_ClrStall
        0x08000708:    b570        p.      PUSH     {r4-r6,lr}
        0x0800070a:    4604        .F      MOV      r4,r0
        0x0800070c:    f001000f    ....    AND      r0,r1,#0xf
        0x08000710:    6862        bh      LDR      r2,[r4,#4]
        0x08000712:    4290        .B      CMP      r0,r2
        0x08000714:    d901        ..      BLS      0x800071a ; HAL_PCD_EP_ClrStall + 18
        0x08000716:    2001        .       MOVS     r0,#1
        0x08000718:    bd70        p.      POP      {r4-r6,pc}
        0x0800071a:    060b        ..      LSLS     r3,r1,#24
        0x0800071c:    f0010007    ....    AND      r0,r1,#7
        0x08000720:    eb000180    ....    ADD      r1,r0,r0,LSL #2
        0x08000724:    eb0401c1    ....    ADD      r1,r4,r1,LSL #3
        0x08000728:    f04f0201    O...    MOV      r2,#1
        0x0800072c:    f04f0500    O...    MOV      r5,#0
        0x08000730:    d503        ..      BPL      0x800073a ; HAL_PCD_EP_ClrStall + 50
        0x08000732:    f8812029    ..)     STRB     r2,[r1,#0x29]
        0x08000736:    3128        (1      ADDS     r1,r1,#0x28
        0x08000738:    e003        ..      B        0x8000742 ; HAL_PCD_EP_ClrStall + 58
        0x0800073a:    f8815169    ..iQ    STRB     r5,[r1,#0x169]
        0x0800073e:    f50171b4    ...q    ADD      r1,r1,#0x168
        0x08000742:    708d        .p      STRB     r5,[r1,#2]
        0x08000744:    7008        .p      STRB     r0,[r1,#0]
        0x08000746:    f89402a8    ....    LDRB     r0,[r4,#0x2a8]
        0x0800074a:    2801        .(      CMP      r0,#1
        0x0800074c:    d008        ..      BEQ      0x8000760 ; HAL_PCD_EP_ClrStall + 88
        0x0800074e:    f88422a8    ..."    STRB     r2,[r4,#0x2a8]
        0x08000752:    6820         h      LDR      r0,[r4,#0]
        0x08000754:    f002fc93    ....    BL       USB_EPClearStall ; 0x800307e
        0x08000758:    f88452a8    ...R    STRB     r5,[r4,#0x2a8]
        0x0800075c:    2000        .       MOVS     r0,#0
        0x0800075e:    bd70        p.      POP      {r4-r6,pc}
        0x08000760:    2002        .       MOVS     r0,#2
        0x08000762:    bd70        p.      POP      {r4-r6,pc}
    i.HAL_PCD_EP_DB_Receive
    HAL_PCD_EP_DB_Receive
        0x08000764:    e92d5ff0    -.._    PUSH     {r4-r12,lr}
        0x08000768:    6804        .h      LDR      r4,[r0,#0]
        0x0800076a:    ea5f4c42    _.BL    LSLS     r12,r2,#17
        0x0800076e:    780b        .x      LDRB     r3,[r1,#0]
        0x08000770:    698d        .i      LDR      r5,[r1,#0x18]
        0x08000772:    f8b4c050    ..P.    LDRH     r12,[r4,#0x50]
        0x08000776:    f04f0600    O...    MOV      r6,#0
        0x0800077a:    f64b798f    K..y    MOV      r9,#0xbf8f
        0x0800077e:    f2480a80    H...    MOV      r10,#0x8080
        0x08000782:    f6487b8f    H..{    MOV      r11,#0x8f8f
        0x08000786:    f2480ec0    H...    MOV      lr,#0x80c0
        0x0800078a:    f44f6780    O..g    MOV      r7,#0x400
        0x0800078e:    d52a        *.      BPL      0x80007e6 ; HAL_PCD_EP_DB_Receive + 130
        0x08000790:    f04f0802    O...    MOV      r8,#2
        0x08000794:    eb0808c3    ....    ADD      r8,r8,r3,LSL #3
        0x08000798:    44c4        .D      ADD      r12,r12,r8
        0x0800079a:    eb07074c    ..L.    ADD      r7,r7,r12,LSL #1
        0x0800079e:    5be4        .[      LDRH     r4,[r4,r7]
        0x080007a0:    f3c40409    ....    UBFX     r4,r4,#0,#10
        0x080007a4:    42a5        .B      CMP      r5,r4
        0x080007a6:    d303        ..      BCC      0x80007b0 ; HAL_PCD_EP_DB_Receive + 76
        0x080007a8:    1b2d        -.      SUBS     r5,r5,r4
        0x080007aa:    618d        .a      STR      r5,[r1,#0x18]
        0x080007ac:    d001        ..      BEQ      0x80007b2 ; HAL_PCD_EP_DB_Receive + 78
        0x080007ae:    e00b        ..      B        0x80007c8 ; HAL_PCD_EP_DB_Receive + 100
        0x080007b0:    618e        .a      STR      r6,[r1,#0x18]
        0x080007b2:    6806        .h      LDR      r6,[r0,#0]
        0x080007b4:    f8365023    6.#P    LDRH     r5,[r6,r3,LSL #2]
        0x080007b8:    ea050509    ....    AND      r5,r5,r9
        0x080007bc:    f4855500    ...U    EOR      r5,r5,#0x2000
        0x080007c0:    ea45050a    E...    ORR      r5,r5,r10
        0x080007c4:    f8265023    &.#P    STRH     r5,[r6,r3,LSL #2]
        0x080007c8:    0652        R.      LSLS     r2,r2,#25
        0x080007ca:    d509        ..      BPL      0x80007e0 ; HAL_PCD_EP_DB_Receive + 124
        0x080007cc:    780d        .x      LDRB     r5,[r1,#0]
        0x080007ce:    6803        .h      LDR      r3,[r0,#0]
        0x080007d0:    f8332025    3.%     LDRH     r2,[r3,r5,LSL #2]
        0x080007d4:    ea02020b    ....    AND      r2,r2,r11
        0x080007d8:    ea42020e    B...    ORR      r2,r2,lr
        0x080007dc:    f8232025    #.%     STRH     r2,[r3,r5,LSL #2]
        0x080007e0:    b384        ..      CBZ      r4,0x8000844 ; HAL_PCD_EP_DB_Receive + 224
        0x080007e2:    890a        ..      LDRH     r2,[r1,#8]
        0x080007e4:    e029        ).      B        0x800083a ; HAL_PCD_EP_DB_Receive + 214
        0x080007e6:    f04f0806    O...    MOV      r8,#6
        0x080007ea:    eb0808c3    ....    ADD      r8,r8,r3,LSL #3
        0x080007ee:    44c4        .D      ADD      r12,r12,r8
        0x080007f0:    eb07074c    ..L.    ADD      r7,r7,r12,LSL #1
        0x080007f4:    5be4        .[      LDRH     r4,[r4,r7]
        0x080007f6:    f3c40409    ....    UBFX     r4,r4,#0,#10
        0x080007fa:    42a5        .B      CMP      r5,r4
        0x080007fc:    d303        ..      BCC      0x8000806 ; HAL_PCD_EP_DB_Receive + 162
        0x080007fe:    1b2d        -.      SUBS     r5,r5,r4
        0x08000800:    618d        .a      STR      r5,[r1,#0x18]
        0x08000802:    d001        ..      BEQ      0x8000808 ; HAL_PCD_EP_DB_Receive + 164
        0x08000804:    e00b        ..      B        0x800081e ; HAL_PCD_EP_DB_Receive + 186
        0x08000806:    618e        .a      STR      r6,[r1,#0x18]
        0x08000808:    6806        .h      LDR      r6,[r0,#0]
        0x0800080a:    f8365023    6.#P    LDRH     r5,[r6,r3,LSL #2]
        0x0800080e:    ea050509    ....    AND      r5,r5,r9
        0x08000812:    f4855500    ...U    EOR      r5,r5,#0x2000
        0x08000816:    ea45050a    E...    ORR      r5,r5,r10
        0x0800081a:    f8265023    &.#P    STRH     r5,[r6,r3,LSL #2]
        0x0800081e:    0652        R.      LSLS     r2,r2,#25
        0x08000820:    d409        ..      BMI      0x8000836 ; HAL_PCD_EP_DB_Receive + 210
        0x08000822:    780b        .x      LDRB     r3,[r1,#0]
        0x08000824:    6805        .h      LDR      r5,[r0,#0]
        0x08000826:    f8352023    5.#     LDRH     r2,[r5,r3,LSL #2]
        0x0800082a:    ea02020b    ....    AND      r2,r2,r11
        0x0800082e:    ea42020e    B...    ORR      r2,r2,lr
        0x08000832:    f8252023    %.#     STRH     r2,[r5,r3,LSL #2]
        0x08000836:    b12c        ,.      CBZ      r4,0x8000844 ; HAL_PCD_EP_DB_Receive + 224
        0x08000838:    894a        J.      LDRH     r2,[r1,#0xa]
        0x0800083a:    6949        Ii      LDR      r1,[r1,#0x14]
        0x0800083c:    6800        .h      LDR      r0,[r0,#0]
        0x0800083e:    4623        #F      MOV      r3,r4
        0x08000840:    f002ff8c    ....    BL       USB_ReadPMA ; 0x800375c
        0x08000844:    4620         F      MOV      r0,r4
        0x08000846:    e8bd9ff0    ....    POP      {r4-r12,pc}
    i.HAL_PCD_EP_DB_Transmit
    HAL_PCD_EP_DB_Transmit
        0x0800084a:    e92d5ff0    -.._    PUSH     {r4-r12,lr}
        0x0800084e:    4605        .F      MOV      r5,r0
        0x08000850:    6800        .h      LDR      r0,[r0,#0]
        0x08000852:    460c        .F      MOV      r4,r1
        0x08000854:    ea5f6c42    _.Bl    LSLS     r12,r2,#25
        0x08000858:    4616        .F      MOV      r6,r2
        0x0800085a:    698b        .i      LDR      r3,[r1,#0x18]
        0x0800085c:    7822        "x      LDRB     r2,[r4,#0]
        0x0800085e:    f8b0c050    ..P.    LDRH     r12,[r0,#0x50]
        0x08000862:    f648778f    H..w    MOV      r7,#0x8f8f
        0x08000866:    f24c0980    L...    MOV      r9,#0xc080
        0x0800086a:    f64f7bff    O..{    MOV      r11,#0xffff
        0x0800086e:    f44f4e00    O..N    MOV      lr,#0x8000
        0x08000872:    f44f6a80    O..j    MOV      r10,#0x400
        0x08000876:    f04f0100    O...    MOV      r1,#0
        0x0800087a:    d57b        {.      BPL      0x8000974 ; HAL_PCD_EP_DB_Transmit + 298
        0x0800087c:    f04f0802    O...    MOV      r8,#2
        0x08000880:    eb0808c2    ....    ADD      r8,r8,r2,LSL #3
        0x08000884:    44e0        .D      ADD      r8,r8,r12
        0x08000886:    eb0a0c48    ..H.    ADD      r12,r10,r8,LSL #1
        0x0800088a:    f830000c    0...    LDRH     r0,[r0,r12]
        0x0800088e:    f3c00009    ....    UBFX     r0,r0,#0,#10
        0x08000892:    4283        .B      CMP      r3,r0
        0x08000894:    d911        ..      BLS      0x80008ba ; HAL_PCD_EP_DB_Transmit + 112
        0x08000896:    1a1b        ..      SUBS     r3,r3,r0
        0x08000898:    61a3        .a      STR      r3,[r4,#0x18]
        0x0800089a:    d00f        ..      BEQ      0x80008bc ; HAL_PCD_EP_DB_Transmit + 114
        0x0800089c:    0473        s.      LSLS     r3,r6,#17
        0x0800089e:    d507        ..      BPL      0x80008b0 ; HAL_PCD_EP_DB_Transmit + 102
        0x080008a0:    682e        .h      LDR      r6,[r5,#0]
        0x080008a2:    f8363022    6."0    LDRH     r3,[r6,r2,LSL #2]
        0x080008a6:    403b        ;@      ANDS     r3,r3,r7
        0x080008a8:    ea430309    C...    ORR      r3,r3,r9
        0x080008ac:    f8263022    &."0    STRH     r3,[r6,r2,LSL #2]
        0x080008b0:    f8942024    ..$     LDRB     r2,[r4,#0x24]
        0x080008b4:    2a01        .*      CMP      r2,#1
        0x080008b6:    d050        P.      BEQ      0x800095a ; HAL_PCD_EP_DB_Transmit + 272
        0x080008b8:    e14e        N.      B        0x8000b58 ; HAL_PCD_EP_DB_Transmit + 782
        0x080008ba:    61a1        .a      STR      r1,[r4,#0x18]
        0x080008bc:    7860        `x      LDRB     r0,[r4,#1]
        0x080008be:    b110        ..      CBZ      r0,0x80008c6 ; HAL_PCD_EP_DB_Transmit + 124
        0x080008c0:    2801        .(      CMP      r0,#1
        0x080008c2:    d013        ..      BEQ      0x80008ec ; HAL_PCD_EP_DB_Transmit + 162
        0x080008c4:    e01a        ..      B        0x80008fc ; HAL_PCD_EP_DB_Transmit + 178
        0x080008c6:    6828        (h      LDR      r0,[r5,#0]
        0x080008c8:    f8b03050    ..P0    LDRH     r3,[r0,#0x50]
        0x080008cc:    4418        .D      ADD      r0,r0,r3
        0x080008ce:    eb001002    ....    ADD      r0,r0,r2,LSL #4
        0x080008d2:    f8b02404    ...$    LDRH     r2,[r0,#0x404]
        0x080008d6:    f42242f8    "..B    BIC      r2,r2,#0x7c00
        0x080008da:    f8a02404    ...$    STRH     r2,[r0,#0x404]
        0x080008de:    f8b02404    ...$    LDRH     r2,[r0,#0x404]
        0x080008e2:    f4424200    B..B    ORR      r2,r2,#0x8000
        0x080008e6:    f8a02404    ...$    STRH     r2,[r0,#0x404]
        0x080008ea:    e007        ..      B        0x80008fc ; HAL_PCD_EP_DB_Transmit + 178
        0x080008ec:    6828        (h      LDR      r0,[r5,#0]
        0x080008ee:    f8b03050    ..P0    LDRH     r3,[r0,#0x50]
        0x080008f2:    4418        .D      ADD      r0,r0,r3
        0x080008f4:    eb001002    ....    ADD      r0,r0,r2,LSL #4
        0x080008f8:    f8a01404    ....    STRH     r1,[r0,#0x404]
        0x080008fc:    7862        bx      LDRB     r2,[r4,#1]
        0x080008fe:    6828        (h      LDR      r0,[r5,#0]
        0x08000900:    b112        ..      CBZ      r2,0x8000908 ; HAL_PCD_EP_DB_Transmit + 190
        0x08000902:    2a01        .*      CMP      r2,#1
        0x08000904:    d011        ..      BEQ      0x800092a ; HAL_PCD_EP_DB_Transmit + 224
        0x08000906:    e018        ..      B        0x800093a ; HAL_PCD_EP_DB_Transmit + 240
        0x08000908:    f8b01050    ..P.    LDRH     r1,[r0,#0x50]
        0x0800090c:    4408        .D      ADD      r0,r0,r1
        0x0800090e:    7821        !x      LDRB     r1,[r4,#0]
        0x08000910:    eb001001    ....    ADD      r0,r0,r1,LSL #4
        0x08000914:    f8b0140c    ....    LDRH     r1,[r0,#0x40c]
        0x08000918:    f42141f8    !..A    BIC      r1,r1,#0x7c00
        0x0800091c:    f8a0140c    ....    STRH     r1,[r0,#0x40c]
        0x08000920:    f8b0140c    ....    LDRH     r1,[r0,#0x40c]
        0x08000924:    f4414100    A..A    ORR      r1,r1,#0x8000
        0x08000928:    e005        ..      B        0x8000936 ; HAL_PCD_EP_DB_Transmit + 236
        0x0800092a:    f8b02050    ..P     LDRH     r2,[r0,#0x50]
        0x0800092e:    4410        .D      ADD      r0,r0,r2
        0x08000930:    7822        "x      LDRB     r2,[r4,#0]
        0x08000932:    eb001002    ....    ADD      r0,r0,r2,LSL #4
        0x08000936:    f8a0140c    ....    STRH     r1,[r0,#0x40c]
        0x0800093a:    7821        !x      LDRB     r1,[r4,#0]
        0x0800093c:    4628        (F      MOV      r0,r5
        0x0800093e:    f7fffeaa    ....    BL       HAL_PCD_DataInStageCallback ; 0x8000696
        0x08000942:    0470        p.      LSLS     r0,r6,#17
        0x08000944:    d5b8        ..      BPL      0x80008b8 ; HAL_PCD_EP_DB_Transmit + 110
        0x08000946:    7821        !x      LDRB     r1,[r4,#0]
        0x08000948:    682a        *h      LDR      r2,[r5,#0]
        0x0800094a:    f8320021    2.!.    LDRH     r0,[r2,r1,LSL #2]
        0x0800094e:    4038        8@      ANDS     r0,r0,r7
        0x08000950:    ea400009    @...    ORR      r0,r0,r9
        0x08000954:    f8220021    ".!.    STRH     r0,[r2,r1,LSL #2]
        0x08000958:    e0fe        ..      B        0x8000b58 ; HAL_PCD_EP_DB_Transmit + 782
        0x0800095a:    6962        bi      LDR      r2,[r4,#0x14]
        0x0800095c:    4402        .D      ADD      r2,r2,r0
        0x0800095e:    6162        ba      STR      r2,[r4,#0x14]
        0x08000960:    69e2        .i      LDR      r2,[r4,#0x1c]
        0x08000962:    4402        .D      ADD      r2,r2,r0
        0x08000964:    61e2        .a      STR      r2,[r4,#0x1c]
        0x08000966:    6923        #i      LDR      r3,[r4,#0x10]
        0x08000968:    6a22        "j      LDR      r2,[r4,#0x20]
        0x0800096a:    429a        .B      CMP      r2,r3
        0x0800096c:    d303        ..      BCC      0x8000976 ; HAL_PCD_EP_DB_Transmit + 300
        0x0800096e:    4618        .F      MOV      r0,r3
        0x08000970:    1a11        ..      SUBS     r1,r2,r0
        0x08000972:    e004        ..      B        0x800097e ; HAL_PCD_EP_DB_Transmit + 308
        0x08000974:    e038        8.      B        0x80009e8 ; HAL_PCD_EP_DB_Transmit + 414
        0x08000976:    f8841024    ..$.    STRB     r1,[r4,#0x24]
        0x0800097a:    b10a        ..      CBZ      r2,0x8000980 ; HAL_PCD_EP_DB_Transmit + 310
        0x0800097c:    4610        .F      MOV      r0,r2
        0x0800097e:    6221        !b      STR      r1,[r4,#0x20]
        0x08000980:    7861        ax      LDRB     r1,[r4,#1]
        0x08000982:    b111        ..      CBZ      r1,0x800098a ; HAL_PCD_EP_DB_Transmit + 320
        0x08000984:    2901        .)      CMP      r1,#1
        0x08000986:    d023        #.      BEQ      0x80009d0 ; HAL_PCD_EP_DB_Transmit + 390
        0x08000988:    e02b        +.      B        0x80009e2 ; HAL_PCD_EP_DB_Transmit + 408
        0x0800098a:    6829        )h      LDR      r1,[r5,#0]
        0x0800098c:    f8b12050    ..P     LDRH     r2,[r1,#0x50]
        0x08000990:    4411        .D      ADD      r1,r1,r2
        0x08000992:    7822        "x      LDRB     r2,[r4,#0]
        0x08000994:    eb011102    ....    ADD      r1,r1,r2,LSL #4
        0x08000998:    f2014104    ...A    ADD      r1,r1,#0x404
        0x0800099c:    b148        H.      CBZ      r0,0x80009b2 ; HAL_PCD_EP_DB_Transmit + 360
        0x0800099e:    283e        >(      CMP      r0,#0x3e
        0x080009a0:    d80f        ..      BHI      0x80009c2 ; HAL_PCD_EP_DB_Transmit + 376
        0x080009a2:    0842        B.      LSRS     r2,r0,#1
        0x080009a4:    07c3        ..      LSLS     r3,r0,#31
        0x080009a6:    d000        ..      BEQ      0x80009aa ; HAL_PCD_EP_DB_Transmit + 352
        0x080009a8:    1c52        R.      ADDS     r2,r2,#1
        0x080009aa:    ea0b2282    ..."    AND      r2,r11,r2,LSL #10
        0x080009ae:    800a        ..      STRH     r2,[r1,#0]
        0x080009b0:    e017        ..      B        0x80009e2 ; HAL_PCD_EP_DB_Transmit + 408
        0x080009b2:    880a        ..      LDRH     r2,[r1,#0]
        0x080009b4:    f42242f8    "..B    BIC      r2,r2,#0x7c00
        0x080009b8:    800a        ..      STRH     r2,[r1,#0]
        0x080009ba:    880a        ..      LDRH     r2,[r1,#0]
        0x080009bc:    f4424200    B..B    ORR      r2,r2,#0x8000
        0x080009c0:    e7f5        ..      B        0x80009ae ; HAL_PCD_EP_DB_Transmit + 356
        0x080009c2:    0942        B.      LSRS     r2,r0,#5
        0x080009c4:    06c3        ..      LSLS     r3,r0,#27
        0x080009c6:    d100        ..      BNE      0x80009ca ; HAL_PCD_EP_DB_Transmit + 384
        0x080009c8:    1e52        R.      SUBS     r2,r2,#1
        0x080009ca:    ea4e2282    N.."    ORR      r2,lr,r2,LSL #10
        0x080009ce:    e7ee        ..      B        0x80009ae ; HAL_PCD_EP_DB_Transmit + 356
        0x080009d0:    6829        )h      LDR      r1,[r5,#0]
        0x080009d2:    f8b12050    ..P     LDRH     r2,[r1,#0x50]
        0x080009d6:    4411        .D      ADD      r1,r1,r2
        0x080009d8:    7822        "x      LDRB     r2,[r4,#0]
        0x080009da:    eb011102    ....    ADD      r1,r1,r2,LSL #4
        0x080009de:    f8a10404    ....    STRH     r0,[r1,#0x404]
        0x080009e2:    b283        ..      UXTH     r3,r0
        0x080009e4:    8922        ".      LDRH     r2,[r4,#8]
        0x080009e6:    e0b3        ..      B        0x8000b50 ; HAL_PCD_EP_DB_Transmit + 774
        0x080009e8:    f04f0806    O...    MOV      r8,#6
        0x080009ec:    eb0808c2    ....    ADD      r8,r8,r2,LSL #3
        0x080009f0:    44e0        .D      ADD      r8,r8,r12
        0x080009f2:    eb0a0c48    ..H.    ADD      r12,r10,r8,LSL #1
        0x080009f6:    f830000c    0...    LDRH     r0,[r0,r12]
        0x080009fa:    f3c00009    ....    UBFX     r0,r0,#0,#10
        0x080009fe:    4283        .B      CMP      r3,r0
        0x08000a00:    d311        ..      BCC      0x8000a26 ; HAL_PCD_EP_DB_Transmit + 476
        0x08000a02:    1a1b        ..      SUBS     r3,r3,r0
        0x08000a04:    61a3        .a      STR      r3,[r4,#0x18]
        0x08000a06:    d00f        ..      BEQ      0x8000a28 ; HAL_PCD_EP_DB_Transmit + 478
        0x08000a08:    0473        s.      LSLS     r3,r6,#17
        0x08000a0a:    d407        ..      BMI      0x8000a1c ; HAL_PCD_EP_DB_Transmit + 466
        0x08000a0c:    682e        .h      LDR      r6,[r5,#0]
        0x08000a0e:    f8363022    6."0    LDRH     r3,[r6,r2,LSL #2]
        0x08000a12:    403b        ;@      ANDS     r3,r3,r7
        0x08000a14:    ea430309    C...    ORR      r3,r3,r9
        0x08000a18:    f8263022    &."0    STRH     r3,[r6,r2,LSL #2]
        0x08000a1c:    f8942024    ..$     LDRB     r2,[r4,#0x24]
        0x08000a20:    2a01        .*      CMP      r2,#1
        0x08000a22:    d050        P.      BEQ      0x8000ac6 ; HAL_PCD_EP_DB_Transmit + 636
        0x08000a24:    e098        ..      B        0x8000b58 ; HAL_PCD_EP_DB_Transmit + 782
        0x08000a26:    61a1        .a      STR      r1,[r4,#0x18]
        0x08000a28:    7860        `x      LDRB     r0,[r4,#1]
        0x08000a2a:    b110        ..      CBZ      r0,0x8000a32 ; HAL_PCD_EP_DB_Transmit + 488
        0x08000a2c:    2801        .(      CMP      r0,#1
        0x08000a2e:    d013        ..      BEQ      0x8000a58 ; HAL_PCD_EP_DB_Transmit + 526
        0x08000a30:    e01a        ..      B        0x8000a68 ; HAL_PCD_EP_DB_Transmit + 542
        0x08000a32:    6828        (h      LDR      r0,[r5,#0]
        0x08000a34:    f8b03050    ..P0    LDRH     r3,[r0,#0x50]
        0x08000a38:    4418        .D      ADD      r0,r0,r3
        0x08000a3a:    eb001002    ....    ADD      r0,r0,r2,LSL #4
        0x08000a3e:    f8b02404    ...$    LDRH     r2,[r0,#0x404]
        0x08000a42:    f42242f8    "..B    BIC      r2,r2,#0x7c00
        0x08000a46:    f8a02404    ...$    STRH     r2,[r0,#0x404]
        0x08000a4a:    f8b02404    ...$    LDRH     r2,[r0,#0x404]
        0x08000a4e:    f4424200    B..B    ORR      r2,r2,#0x8000
        0x08000a52:    f8a02404    ...$    STRH     r2,[r0,#0x404]
        0x08000a56:    e007        ..      B        0x8000a68 ; HAL_PCD_EP_DB_Transmit + 542
        0x08000a58:    6828        (h      LDR      r0,[r5,#0]
        0x08000a5a:    f8b03050    ..P0    LDRH     r3,[r0,#0x50]
        0x08000a5e:    4418        .D      ADD      r0,r0,r3
        0x08000a60:    eb001002    ....    ADD      r0,r0,r2,LSL #4
        0x08000a64:    f8a01404    ....    STRH     r1,[r0,#0x404]
        0x08000a68:    7862        bx      LDRB     r2,[r4,#1]
        0x08000a6a:    6828        (h      LDR      r0,[r5,#0]
        0x08000a6c:    b112        ..      CBZ      r2,0x8000a74 ; HAL_PCD_EP_DB_Transmit + 554
        0x08000a6e:    2a01        .*      CMP      r2,#1
        0x08000a70:    d011        ..      BEQ      0x8000a96 ; HAL_PCD_EP_DB_Transmit + 588
        0x08000a72:    e018        ..      B        0x8000aa6 ; HAL_PCD_EP_DB_Transmit + 604
        0x08000a74:    f8b01050    ..P.    LDRH     r1,[r0,#0x50]
        0x08000a78:    4408        .D      ADD      r0,r0,r1
        0x08000a7a:    7821        !x      LDRB     r1,[r4,#0]
        0x08000a7c:    eb001001    ....    ADD      r0,r0,r1,LSL #4
        0x08000a80:    f8b0140c    ....    LDRH     r1,[r0,#0x40c]
        0x08000a84:    f42141f8    !..A    BIC      r1,r1,#0x7c00
        0x08000a88:    f8a0140c    ....    STRH     r1,[r0,#0x40c]
        0x08000a8c:    f8b0140c    ....    LDRH     r1,[r0,#0x40c]
        0x08000a90:    f4414100    A..A    ORR      r1,r1,#0x8000
        0x08000a94:    e005        ..      B        0x8000aa2 ; HAL_PCD_EP_DB_Transmit + 600
        0x08000a96:    f8b02050    ..P     LDRH     r2,[r0,#0x50]
        0x08000a9a:    4410        .D      ADD      r0,r0,r2
        0x08000a9c:    7822        "x      LDRB     r2,[r4,#0]
        0x08000a9e:    eb001002    ....    ADD      r0,r0,r2,LSL #4
        0x08000aa2:    f8a0140c    ....    STRH     r1,[r0,#0x40c]
        0x08000aa6:    7821        !x      LDRB     r1,[r4,#0]
        0x08000aa8:    4628        (F      MOV      r0,r5
        0x08000aaa:    f7fffdf4    ....    BL       HAL_PCD_DataInStageCallback ; 0x8000696
        0x08000aae:    0470        p.      LSLS     r0,r6,#17
        0x08000ab0:    d452        R.      BMI      0x8000b58 ; HAL_PCD_EP_DB_Transmit + 782
        0x08000ab2:    7822        "x      LDRB     r2,[r4,#0]
        0x08000ab4:    6829        )h      LDR      r1,[r5,#0]
        0x08000ab6:    f8310022    1.".    LDRH     r0,[r1,r2,LSL #2]
        0x08000aba:    4038        8@      ANDS     r0,r0,r7
        0x08000abc:    ea400009    @...    ORR      r0,r0,r9
        0x08000ac0:    f8210022    !.".    STRH     r0,[r1,r2,LSL #2]
        0x08000ac4:    e048        H.      B        0x8000b58 ; HAL_PCD_EP_DB_Transmit + 782
        0x08000ac6:    6962        bi      LDR      r2,[r4,#0x14]
        0x08000ac8:    4402        .D      ADD      r2,r2,r0
        0x08000aca:    6162        ba      STR      r2,[r4,#0x14]
        0x08000acc:    69e2        .i      LDR      r2,[r4,#0x1c]
        0x08000ace:    4402        .D      ADD      r2,r2,r0
        0x08000ad0:    61e2        .a      STR      r2,[r4,#0x1c]
        0x08000ad2:    6923        #i      LDR      r3,[r4,#0x10]
        0x08000ad4:    6a22        "j      LDR      r2,[r4,#0x20]
        0x08000ad6:    429a        .B      CMP      r2,r3
        0x08000ad8:    d303        ..      BCC      0x8000ae2 ; HAL_PCD_EP_DB_Transmit + 664
        0x08000ada:    4618        .F      MOV      r0,r3
        0x08000adc:    1a11        ..      SUBS     r1,r2,r0
        0x08000ade:    6221        !b      STR      r1,[r4,#0x20]
        0x08000ae0:    e004        ..      B        0x8000aec ; HAL_PCD_EP_DB_Transmit + 674
        0x08000ae2:    b10a        ..      CBZ      r2,0x8000ae8 ; HAL_PCD_EP_DB_Transmit + 670
        0x08000ae4:    4610        .F      MOV      r0,r2
        0x08000ae6:    6221        !b      STR      r1,[r4,#0x20]
        0x08000ae8:    f8841024    ..$.    STRB     r1,[r4,#0x24]
        0x08000aec:    7862        bx      LDRB     r2,[r4,#1]
        0x08000aee:    6829        )h      LDR      r1,[r5,#0]
        0x08000af0:    b112        ..      CBZ      r2,0x8000af8 ; HAL_PCD_EP_DB_Transmit + 686
        0x08000af2:    2a01        .*      CMP      r2,#1
        0x08000af4:    d022        ".      BEQ      0x8000b3c ; HAL_PCD_EP_DB_Transmit + 754
        0x08000af6:    e029        ).      B        0x8000b4c ; HAL_PCD_EP_DB_Transmit + 770
        0x08000af8:    f8b12050    ..P     LDRH     r2,[r1,#0x50]
        0x08000afc:    4411        .D      ADD      r1,r1,r2
        0x08000afe:    7822        "x      LDRB     r2,[r4,#0]
        0x08000b00:    eb011102    ....    ADD      r1,r1,r2,LSL #4
        0x08000b04:    f201410c    ...A    ADD      r1,r1,#0x40c
        0x08000b08:    b148        H.      CBZ      r0,0x8000b1e ; HAL_PCD_EP_DB_Transmit + 724
        0x08000b0a:    283e        >(      CMP      r0,#0x3e
        0x08000b0c:    d80f        ..      BHI      0x8000b2e ; HAL_PCD_EP_DB_Transmit + 740
        0x08000b0e:    0842        B.      LSRS     r2,r0,#1
        0x08000b10:    07c3        ..      LSLS     r3,r0,#31
        0x08000b12:    d000        ..      BEQ      0x8000b16 ; HAL_PCD_EP_DB_Transmit + 716
        0x08000b14:    1c52        R.      ADDS     r2,r2,#1
        0x08000b16:    ea0b2282    ..."    AND      r2,r11,r2,LSL #10
        0x08000b1a:    800a        ..      STRH     r2,[r1,#0]
        0x08000b1c:    e016        ..      B        0x8000b4c ; HAL_PCD_EP_DB_Transmit + 770
        0x08000b1e:    880a        ..      LDRH     r2,[r1,#0]
        0x08000b20:    f42242f8    "..B    BIC      r2,r2,#0x7c00
        0x08000b24:    800a        ..      STRH     r2,[r1,#0]
        0x08000b26:    880a        ..      LDRH     r2,[r1,#0]
        0x08000b28:    f4424200    B..B    ORR      r2,r2,#0x8000
        0x08000b2c:    e7f5        ..      B        0x8000b1a ; HAL_PCD_EP_DB_Transmit + 720
        0x08000b2e:    0942        B.      LSRS     r2,r0,#5
        0x08000b30:    06c3        ..      LSLS     r3,r0,#27
        0x08000b32:    d100        ..      BNE      0x8000b36 ; HAL_PCD_EP_DB_Transmit + 748
        0x08000b34:    1e52        R.      SUBS     r2,r2,#1
        0x08000b36:    ea4e2282    N.."    ORR      r2,lr,r2,LSL #10
        0x08000b3a:    e7ee        ..      B        0x8000b1a ; HAL_PCD_EP_DB_Transmit + 720
        0x08000b3c:    f8b12050    ..P     LDRH     r2,[r1,#0x50]
        0x08000b40:    4411        .D      ADD      r1,r1,r2
        0x08000b42:    7822        "x      LDRB     r2,[r4,#0]
        0x08000b44:    eb011102    ....    ADD      r1,r1,r2,LSL #4
        0x08000b48:    f8a1040c    ....    STRH     r0,[r1,#0x40c]
        0x08000b4c:    8962        b.      LDRH     r2,[r4,#0xa]
        0x08000b4e:    b283        ..      UXTH     r3,r0
        0x08000b50:    6961        ai      LDR      r1,[r4,#0x14]
        0x08000b52:    6828        (h      LDR      r0,[r5,#0]
        0x08000b54:    f002fe20    .. .    BL       USB_WritePMA ; 0x8003798
        0x08000b58:    7821        !x      LDRB     r1,[r4,#0]
        0x08000b5a:    682a        *h      LDR      r2,[r5,#0]
        0x08000b5c:    f8320021    2.!.    LDRH     r0,[r2,r1,LSL #2]
        0x08000b60:    f64873bf    H..s    MOV      r3,#0x8fbf
        0x08000b64:    4018        .@      ANDS     r0,r0,r3
        0x08000b66:    f0800030    ..0.    EOR      r0,r0,#0x30
        0x08000b6a:    f2480380    H...    MOV      r3,#0x8080
        0x08000b6e:    4318        .C      ORRS     r0,r0,r3
        0x08000b70:    f8220021    ".!.    STRH     r0,[r2,r1,LSL #2]
        0x08000b74:    2000        .       MOVS     r0,#0
        0x08000b76:    e8bd9ff0    ....    POP      {r4-r12,pc}
    i.HAL_PCD_EP_GetRxCount
    HAL_PCD_EP_GetRxCount
        0x08000b7a:    f0010107    ....    AND      r1,r1,#7
        0x08000b7e:    eb010181    ....    ADD      r1,r1,r1,LSL #2
        0x08000b82:    eb0000c1    ....    ADD      r0,r0,r1,LSL #3
        0x08000b86:    f8d00184    ....    LDR      r0,[r0,#0x184]
        0x08000b8a:    4770        pG      BX       lr
    i.HAL_PCD_EP_Open
    HAL_PCD_EP_Open
        0x08000b8c:    e92d41f0    -..A    PUSH     {r4-r8,lr}
        0x08000b90:    4604        .F      MOV      r4,r0
        0x08000b92:    060f        ..      LSLS     r7,r1,#24
        0x08000b94:    f0010007    ....    AND      r0,r1,#7
        0x08000b98:    eb000180    ....    ADD      r1,r0,r0,LSL #2
        0x08000b9c:    eb0401c1    ....    ADD      r1,r4,r1,LSL #3
        0x08000ba0:    f04f0601    O...    MOV      r6,#1
        0x08000ba4:    f04f0500    O...    MOV      r5,#0
        0x08000ba8:    d503        ..      BPL      0x8000bb2 ; HAL_PCD_EP_Open + 38
        0x08000baa:    f8816029    ..)`    STRB     r6,[r1,#0x29]
        0x08000bae:    3128        (1      ADDS     r1,r1,#0x28
        0x08000bb0:    e003        ..      B        0x8000bba ; HAL_PCD_EP_Open + 46
        0x08000bb2:    f8815169    ..iQ    STRB     r5,[r1,#0x169]
        0x08000bb6:    f50171b4    ...q    ADD      r1,r1,#0x168
        0x08000bba:    7008        .p      STRB     r0,[r1,#0]
        0x08000bbc:    610a        .a      STR      r2,[r1,#0x10]
        0x08000bbe:    70cb        .p      STRB     r3,[r1,#3]
        0x08000bc0:    784a        Jx      LDRB     r2,[r1,#1]
        0x08000bc2:    b102        ..      CBZ      r2,0x8000bc6 ; HAL_PCD_EP_Open + 58
        0x08000bc4:    81c8        ..      STRH     r0,[r1,#0xe]
        0x08000bc6:    2b02        .+      CMP      r3,#2
        0x08000bc8:    d100        ..      BNE      0x8000bcc ; HAL_PCD_EP_Open + 64
        0x08000bca:    710d        .q      STRB     r5,[r1,#4]
        0x08000bcc:    f89402a8    ....    LDRB     r0,[r4,#0x2a8]
        0x08000bd0:    2801        .(      CMP      r0,#1
        0x08000bd2:    d009        ..      BEQ      0x8000be8 ; HAL_PCD_EP_Open + 92
        0x08000bd4:    f88462a8    ...b    STRB     r6,[r4,#0x2a8]
        0x08000bd8:    6820         h      LDR      r0,[r4,#0]
        0x08000bda:    f002f885    ....    BL       USB_ActivateEndpoint ; 0x8002ce8
        0x08000bde:    4628        (F      MOV      r0,r5
        0x08000be0:    f88452a8    ...R    STRB     r5,[r4,#0x2a8]
        0x08000be4:    e8bd81f0    ....    POP      {r4-r8,pc}
        0x08000be8:    2002        .       MOVS     r0,#2
        0x08000bea:    e7fb        ..      B        0x8000be4 ; HAL_PCD_EP_Open + 88
    i.HAL_PCD_EP_Receive
    HAL_PCD_EP_Receive
        0x08000bec:    b570        p.      PUSH     {r4-r6,lr}
        0x08000bee:    460c        .F      MOV      r4,r1
        0x08000bf0:    f0010507    ....    AND      r5,r1,#7
        0x08000bf4:    eb050185    ....    ADD      r1,r5,r5,LSL #2
        0x08000bf8:    eb0001c1    ....    ADD      r1,r0,r1,LSL #3
        0x08000bfc:    e9c1235f    .._#    STRD     r2,r3,[r1,#0x17c]
        0x08000c00:    2200        ."      MOVS     r2,#0
        0x08000c02:    f8c12184    ...!    STR      r2,[r1,#0x184]
        0x08000c06:    f8812169    ..i!    STRB     r2,[r1,#0x169]
        0x08000c0a:    f8815168    ..hQ    STRB     r5,[r1,#0x168]
        0x08000c0e:    f50171b4    ...q    ADD      r1,r1,#0x168
        0x08000c12:    0762        b.      LSLS     r2,r4,#29
        0x08000c14:    6800        .h      LDR      r0,[r0,#0]
        0x08000c16:    f002fa87    ....    BL       USB_EPStartXfer ; 0x8003128
        0x08000c1a:    2000        .       MOVS     r0,#0
        0x08000c1c:    bd70        p.      POP      {r4-r6,pc}
    i.HAL_PCD_EP_SetStall
    HAL_PCD_EP_SetStall
        0x08000c1e:    b570        p.      PUSH     {r4-r6,lr}
        0x08000c20:    4604        .F      MOV      r4,r0
        0x08000c22:    460d        .F      MOV      r5,r1
        0x08000c24:    f0010007    ....    AND      r0,r1,#7
        0x08000c28:    6861        ah      LDR      r1,[r4,#4]
        0x08000c2a:    4288        .B      CMP      r0,r1
        0x08000c2c:    d901        ..      BLS      0x8000c32 ; HAL_PCD_EP_SetStall + 20
        0x08000c2e:    2001        .       MOVS     r0,#1
        0x08000c30:    bd70        p.      POP      {r4-r6,pc}
        0x08000c32:    0629        ).      LSLS     r1,r5,#24
        0x08000c34:    f04f0600    O...    MOV      r6,#0
        0x08000c38:    f04f0201    O...    MOV      r2,#1
        0x08000c3c:    d507        ..      BPL      0x8000c4e ; HAL_PCD_EP_SetStall + 48
        0x08000c3e:    eb000180    ....    ADD      r1,r0,r0,LSL #2
        0x08000c42:    eb0401c1    ....    ADD      r1,r4,r1,LSL #3
        0x08000c46:    f8812029    ..)     STRB     r2,[r1,#0x29]
        0x08000c4a:    3128        (1      ADDS     r1,r1,#0x28
        0x08000c4c:    e007        ..      B        0x8000c5e ; HAL_PCD_EP_SetStall + 64
        0x08000c4e:    eb050185    ....    ADD      r1,r5,r5,LSL #2
        0x08000c52:    eb0401c1    ....    ADD      r1,r4,r1,LSL #3
        0x08000c56:    f8816169    ..ia    STRB     r6,[r1,#0x169]
        0x08000c5a:    f50171b4    ...q    ADD      r1,r1,#0x168
        0x08000c5e:    708a        .p      STRB     r2,[r1,#2]
        0x08000c60:    7008        .p      STRB     r0,[r1,#0]
        0x08000c62:    f89402a8    ....    LDRB     r0,[r4,#0x2a8]
        0x08000c66:    2801        .(      CMP      r0,#1
        0x08000c68:    d007        ..      BEQ      0x8000c7a ; HAL_PCD_EP_SetStall + 92
        0x08000c6a:    f88422a8    ..."    STRB     r2,[r4,#0x2a8]
        0x08000c6e:    6820         h      LDR      r0,[r4,#0]
        0x08000c70:    f002fa41    ..A.    BL       USB_EPSetStall ; 0x80030f6
        0x08000c74:    0768        h.      LSLS     r0,r5,#29
        0x08000c76:    d002        ..      BEQ      0x8000c7e ; HAL_PCD_EP_SetStall + 96
        0x08000c78:    e006        ..      B        0x8000c88 ; HAL_PCD_EP_SetStall + 106
        0x08000c7a:    2002        .       MOVS     r0,#2
        0x08000c7c:    bd70        p.      POP      {r4-r6,pc}
        0x08000c7e:    f504712c    ..,q    ADD      r1,r4,#0x2b0
        0x08000c82:    6820         h      LDR      r0,[r4,#0]
        0x08000c84:    f002f9f9    ....    BL       USB_EP0_OutStart ; 0x800307a
        0x08000c88:    f88462a8    ...b    STRB     r6,[r4,#0x2a8]
        0x08000c8c:    2000        .       MOVS     r0,#0
        0x08000c8e:    bd70        p.      POP      {r4-r6,pc}
    i.HAL_PCD_EP_Transmit
    HAL_PCD_EP_Transmit
        0x08000c90:    b570        p.      PUSH     {r4-r6,lr}
        0x08000c92:    460c        .F      MOV      r4,r1
        0x08000c94:    f0010507    ....    AND      r5,r1,#7
        0x08000c98:    eb050185    ....    ADD      r1,r5,r5,LSL #2
        0x08000c9c:    eb0001c1    ....    ADD      r1,r0,r1,LSL #3
        0x08000ca0:    e9c1230f    ...#    STRD     r2,r3,[r1,#0x3c]
        0x08000ca4:    2201        ."      MOVS     r2,#1
        0x08000ca6:    f881204c    ..L     STRB     r2,[r1,#0x4c]
        0x08000caa:    648b        .d      STR      r3,[r1,#0x48]
        0x08000cac:    2300        .#      MOVS     r3,#0
        0x08000cae:    644b        Kd      STR      r3,[r1,#0x44]
        0x08000cb0:    f8812029    ..)     STRB     r2,[r1,#0x29]
        0x08000cb4:    f8015f28    ..(_    STRB     r5,[r1,#0x28]!
        0x08000cb8:    0762        b.      LSLS     r2,r4,#29
        0x08000cba:    6800        .h      LDR      r0,[r0,#0]
        0x08000cbc:    f002fa34    ..4.    BL       USB_EPStartXfer ; 0x8003128
        0x08000cc0:    2000        .       MOVS     r0,#0
        0x08000cc2:    bd70        p.      POP      {r4-r6,pc}
    i.HAL_PCD_IRQHandler
    HAL_PCD_IRQHandler
        0x08000cc4:    b51f        ..      PUSH     {r0-r4,lr}
        0x08000cc6:    4604        .F      MOV      r4,r0
        0x08000cc8:    6800        .h      LDR      r0,[r0,#0]
        0x08000cca:    f002fd43    ..C.    BL       USB_ReadInterrupts ; 0x8003754
        0x08000cce:    0400        ..      LSLS     r0,r0,#16
        0x08000cd0:    d502        ..      BPL      0x8000cd8 ; HAL_PCD_IRQHandler + 20
        0x08000cd2:    4620         F      MOV      r0,r4
        0x08000cd4:    f000ff12    ....    BL       PCD_EP_ISR_Handler ; 0x8001afc
        0x08000cd8:    6820         h      LDR      r0,[r4,#0]
        0x08000cda:    f002fd3b    ..;.    BL       USB_ReadInterrupts ; 0x8003754
        0x08000cde:    0540        @.      LSLS     r0,r0,#21
        0x08000ce0:    d50c        ..      BPL      0x8000cfc ; HAL_PCD_IRQHandler + 56
        0x08000ce2:    6820         h      LDR      r0,[r4,#0]
        0x08000ce4:    f8301f44    0.D.    LDRH     r1,[r0,#0x44]!
        0x08000ce8:    f4216180    !..a    BIC      r1,r1,#0x400
        0x08000cec:    8001        ..      STRH     r1,[r0,#0]
        0x08000cee:    4620         F      MOV      r0,r4
        0x08000cf0:    f000f91e    ....    BL       HAL_PCD_ResetCallback ; 0x8000f30
        0x08000cf4:    2100        .!      MOVS     r1,#0
        0x08000cf6:    4620         F      MOV      r0,r4
        0x08000cf8:    f000f935    ..5.    BL       HAL_PCD_SetAddress ; 0x8000f66
        0x08000cfc:    6820         h      LDR      r0,[r4,#0]
        0x08000cfe:    f002fd29    ..).    BL       USB_ReadInterrupts ; 0x8003754
        0x08000d02:    0440        @.      LSLS     r0,r0,#17
        0x08000d04:    d505        ..      BPL      0x8000d12 ; HAL_PCD_IRQHandler + 78
        0x08000d06:    6820         h      LDR      r0,[r4,#0]
        0x08000d08:    f8301f44    0.D.    LDRH     r1,[r0,#0x44]!
        0x08000d0c:    f4214180    !..A    BIC      r1,r1,#0x4000
        0x08000d10:    8001        ..      STRH     r1,[r0,#0]
        0x08000d12:    6820         h      LDR      r0,[r4,#0]
        0x08000d14:    f002fd1e    ....    BL       USB_ReadInterrupts ; 0x8003754
        0x08000d18:    0480        ..      LSLS     r0,r0,#18
        0x08000d1a:    d505        ..      BPL      0x8000d28 ; HAL_PCD_IRQHandler + 100
        0x08000d1c:    6820         h      LDR      r0,[r4,#0]
        0x08000d1e:    f8301f44    0.D.    LDRH     r1,[r0,#0x44]!
        0x08000d22:    f4215100    !..Q    BIC      r1,r1,#0x2000
        0x08000d26:    8001        ..      STRH     r1,[r0,#0]
        0x08000d28:    6820         h      LDR      r0,[r4,#0]
        0x08000d2a:    f002fd13    ....    BL       USB_ReadInterrupts ; 0x8003754
        0x08000d2e:    04c0        ..      LSLS     r0,r0,#19
        0x08000d30:    d514        ..      BPL      0x8000d5c ; HAL_PCD_IRQHandler + 152
        0x08000d32:    6820         h      LDR      r0,[r4,#0]
        0x08000d34:    f8301f40    0.@.    LDRH     r1,[r0,#0x40]!
        0x08000d38:    f0210104    !...    BIC      r1,r1,#4
        0x08000d3c:    8001        ..      STRH     r1,[r0,#0]
        0x08000d3e:    6820         h      LDR      r0,[r4,#0]
        0x08000d40:    f8301f40    0.@.    LDRH     r1,[r0,#0x40]!
        0x08000d44:    f0210108    !...    BIC      r1,r1,#8
        0x08000d48:    8001        ..      STRH     r1,[r0,#0]
        0x08000d4a:    4620         F      MOV      r0,r4
        0x08000d4c:    f000f903    ....    BL       HAL_PCD_ResumeCallback ; 0x8000f56
        0x08000d50:    6820         h      LDR      r0,[r4,#0]
        0x08000d52:    f8301f44    0.D.    LDRH     r1,[r0,#0x44]!
        0x08000d56:    f4215180    !..Q    BIC      r1,r1,#0x1000
        0x08000d5a:    8001        ..      STRH     r1,[r0,#0]
        0x08000d5c:    6820         h      LDR      r0,[r4,#0]
        0x08000d5e:    f002fcf9    ....    BL       USB_ReadInterrupts ; 0x8003754
        0x08000d62:    0500        ..      LSLS     r0,r0,#20
        0x08000d64:    d53e        >.      BPL      0x8000de4 ; HAL_PCD_IRQHandler + 288
        0x08000d66:    6822        "h      LDR      r2,[r4,#0]
        0x08000d68:    2000        .       MOVS     r0,#0
        0x08000d6a:    4669        iF      MOV      r1,sp
        0x08000d6c:    f8323020    2. 0    LDRH     r3,[r2,r0,LSL #2]
        0x08000d70:    f8213010    !..0    STRH     r3,[r1,r0,LSL #1]
        0x08000d74:    1c40        @.      ADDS     r0,r0,#1
        0x08000d76:    b2c0        ..      UXTB     r0,r0
        0x08000d78:    2808        .(      CMP      r0,#8
        0x08000d7a:    d3f7        ..      BCC      0x8000d6c ; HAL_PCD_IRQHandler + 168
        0x08000d7c:    f8320f40    2.@.    LDRH     r0,[r2,#0x40]!
        0x08000d80:    f0400001    @...    ORR      r0,r0,#1
        0x08000d84:    8010        ..      STRH     r0,[r2,#0]
        0x08000d86:    6820         h      LDR      r0,[r4,#0]
        0x08000d88:    f8302f40    0.@/    LDRH     r2,[r0,#0x40]!
        0x08000d8c:    f0220201    "...    BIC      r2,r2,#1
        0x08000d90:    8002        ..      STRH     r2,[r0,#0]
        0x08000d92:    6820         h      LDR      r0,[r4,#0]
        0x08000d94:    f8b02044    ..D     LDRH     r2,[r0,#0x44]
        0x08000d98:    0552        R.      LSLS     r2,r2,#21
        0x08000d9a:    d5fb        ..      BPL      0x8000d94 ; HAL_PCD_IRQHandler + 208
        0x08000d9c:    f8302f44    0.D/    LDRH     r2,[r0,#0x44]!
        0x08000da0:    f4226280    "..b    BIC      r2,r2,#0x400
        0x08000da4:    8002        ..      STRH     r2,[r0,#0]
        0x08000da6:    2000        .       MOVS     r0,#0
        0x08000da8:    6823        #h      LDR      r3,[r4,#0]
        0x08000daa:    f8312010    1..     LDRH     r2,[r1,r0,LSL #1]
        0x08000dae:    f8232020    #.      STRH     r2,[r3,r0,LSL #2]
        0x08000db2:    1c40        @.      ADDS     r0,r0,#1
        0x08000db4:    b2c0        ..      UXTB     r0,r0
        0x08000db6:    2808        .(      CMP      r0,#8
        0x08000db8:    d3f6        ..      BCC      0x8000da8 ; HAL_PCD_IRQHandler + 228
        0x08000dba:    6820         h      LDR      r0,[r4,#0]
        0x08000dbc:    f8301f40    0.@.    LDRH     r1,[r0,#0x40]!
        0x08000dc0:    f0410108    A...    ORR      r1,r1,#8
        0x08000dc4:    8001        ..      STRH     r1,[r0,#0]
        0x08000dc6:    6820         h      LDR      r0,[r4,#0]
        0x08000dc8:    f8301f44    0.D.    LDRH     r1,[r0,#0x44]!
        0x08000dcc:    f4216100    !..a    BIC      r1,r1,#0x800
        0x08000dd0:    8001        ..      STRH     r1,[r0,#0]
        0x08000dd2:    6820         h      LDR      r0,[r4,#0]
        0x08000dd4:    f8301f40    0.@.    LDRH     r1,[r0,#0x40]!
        0x08000dd8:    f0410104    A...    ORR      r1,r1,#4
        0x08000ddc:    8001        ..      STRH     r1,[r0,#0]
        0x08000dde:    4620         F      MOV      r0,r4
        0x08000de0:    f000f8f6    ....    BL       HAL_PCD_SuspendCallback ; 0x8000fd0
        0x08000de4:    6820         h      LDR      r0,[r4,#0]
        0x08000de6:    f002fcb5    ....    BL       USB_ReadInterrupts ; 0x8003754
        0x08000dea:    0580        ..      LSLS     r0,r0,#22
        0x08000dec:    d508        ..      BPL      0x8000e00 ; HAL_PCD_IRQHandler + 316
        0x08000dee:    6820         h      LDR      r0,[r4,#0]
        0x08000df0:    f8301f44    0.D.    LDRH     r1,[r0,#0x44]!
        0x08000df4:    f4217100    !..q    BIC      r1,r1,#0x200
        0x08000df8:    8001        ..      STRH     r1,[r0,#0]
        0x08000dfa:    4620         F      MOV      r0,r4
        0x08000dfc:    f000f8af    ....    BL       HAL_PCD_SOFCallback ; 0x8000f5e
        0x08000e00:    6820         h      LDR      r0,[r4,#0]
        0x08000e02:    f002fca7    ....    BL       USB_ReadInterrupts ; 0x8003754
        0x08000e06:    05c0        ..      LSLS     r0,r0,#23
        0x08000e08:    d505        ..      BPL      0x8000e16 ; HAL_PCD_IRQHandler + 338
        0x08000e0a:    6820         h      LDR      r0,[r4,#0]
        0x08000e0c:    f8301f44    0.D.    LDRH     r1,[r0,#0x44]!
        0x08000e10:    f4217180    !..q    BIC      r1,r1,#0x100
        0x08000e14:    8001        ..      STRH     r1,[r0,#0]
        0x08000e16:    bd1f        ..      POP      {r0-r4,pc}
    i.HAL_PCD_Init
    HAL_PCD_Init
        0x08000e18:    e92d41f0    -..A    PUSH     {r4-r8,lr}
        0x08000e1c:    b086        ..      SUB      sp,sp,#0x18
        0x08000e1e:    0004        ..      MOVS     r4,r0
        0x08000e20:    d004        ..      BEQ      0x8000e2c ; HAL_PCD_Init + 20
        0x08000e22:    f89402a9    ....    LDRB     r0,[r4,#0x2a9]
        0x08000e26:    2500        .%      MOVS     r5,#0
        0x08000e28:    b120         .      CBZ      r0,0x8000e34 ; HAL_PCD_Init + 28
        0x08000e2a:    e008        ..      B        0x8000e3e ; HAL_PCD_Init + 38
        0x08000e2c:    2001        .       MOVS     r0,#1
        0x08000e2e:    b006        ..      ADD      sp,sp,#0x18
        0x08000e30:    e8bd81f0    ....    POP      {r4-r8,pc}
        0x08000e34:    f88452a8    ...R    STRB     r5,[r4,#0x2a8]
        0x08000e38:    4620         F      MOV      r0,r4
        0x08000e3a:    f000f85b    ..[.    BL       HAL_PCD_MspInit ; 0x8000ef4
        0x08000e3e:    2003        .       MOVS     r0,#3
        0x08000e40:    f88402a9    ....    STRB     r0,[r4,#0x2a9]
        0x08000e44:    6820         h      LDR      r0,[r4,#0]
        0x08000e46:    f002f911    ....    BL       USB_DisableGlobalInt ; 0x800306c
        0x08000e4a:    f1040110    ....    ADD      r1,r4,#0x10
        0x08000e4e:    2214        ."      MOVS     r2,#0x14
        0x08000e50:    4688        .F      MOV      r8,r1
        0x08000e52:    4668        hF      MOV      r0,sp
        0x08000e54:    f7fff9d8    ....    BL       __aeabi_memcpy4 ; 0x8000208
        0x08000e58:    e894000f    ....    LDM      r4,{r0-r3}
        0x08000e5c:    f002f870    ..p.    BL       USB_CoreInit ; 0x8002f40
        0x08000e60:    2602        .&      MOVS     r6,#2
        0x08000e62:    bbd0        ..      CBNZ     r0,0x8000eda ; HAL_PCD_Init + 194
        0x08000e64:    2100        .!      MOVS     r1,#0
        0x08000e66:    6820         h      LDR      r0,[r4,#0]
        0x08000e68:    f002fc8e    ....    BL       USB_SetCurrentMode ; 0x8003788
        0x08000e6c:    2000        .       MOVS     r0,#0
        0x08000e6e:    2701        .'      MOVS     r7,#1
        0x08000e70:    e00f        ..      B        0x8000e92 ; HAL_PCD_Init + 122
        0x08000e72:    bf00        ..      NOP      
        0x08000e74:    eb000180    ....    ADD      r1,r0,r0,LSL #2
        0x08000e78:    eb0401c1    ....    ADD      r1,r4,r1,LSL #3
        0x08000e7c:    f8817029    ..)p    STRB     r7,[r1,#0x29]
        0x08000e80:    f8010f28    ..(.    STRB     r0,[r1,#0x28]!
        0x08000e84:    81c8        ..      STRH     r0,[r1,#0xe]
        0x08000e86:    70cd        .p      STRB     r5,[r1,#3]
        0x08000e88:    610d        .a      STR      r5,[r1,#0x10]
        0x08000e8a:    614d        Ma      STR      r5,[r1,#0x14]
        0x08000e8c:    1c40        @.      ADDS     r0,r0,#1
        0x08000e8e:    b2c0        ..      UXTB     r0,r0
        0x08000e90:    618d        .a      STR      r5,[r1,#0x18]
        0x08000e92:    6861        ah      LDR      r1,[r4,#4]
        0x08000e94:    4281        .B      CMP      r1,r0
        0x08000e96:    d8ed        ..      BHI      0x8000e74 ; HAL_PCD_Init + 92
        0x08000e98:    2000        .       MOVS     r0,#0
        0x08000e9a:    e011        ..      B        0x8000ec0 ; HAL_PCD_Init + 168
        0x08000e9c:    eb000180    ....    ADD      r1,r0,r0,LSL #2
        0x08000ea0:    eb0401c1    ....    ADD      r1,r4,r1,LSL #3
        0x08000ea4:    f8815169    ..iQ    STRB     r5,[r1,#0x169]
        0x08000ea8:    f8810168    ..h.    STRB     r0,[r1,#0x168]
        0x08000eac:    f881516b    ..kQ    STRB     r5,[r1,#0x16b]
        0x08000eb0:    f8c15178    ..xQ    STR      r5,[r1,#0x178]
        0x08000eb4:    f8c1517c    ..|Q    STR      r5,[r1,#0x17c]
        0x08000eb8:    1c40        @.      ADDS     r0,r0,#1
        0x08000eba:    b2c0        ..      UXTB     r0,r0
        0x08000ebc:    f8c15180    ...Q    STR      r5,[r1,#0x180]
        0x08000ec0:    6861        ah      LDR      r1,[r4,#4]
        0x08000ec2:    4281        .B      CMP      r1,r0
        0x08000ec4:    d8ea        ..      BHI      0x8000e9c ; HAL_PCD_Init + 132
        0x08000ec6:    2214        ."      MOVS     r2,#0x14
        0x08000ec8:    4641        AF      MOV      r1,r8
        0x08000eca:    4668        hF      MOV      r0,sp
        0x08000ecc:    f7fff99c    ....    BL       __aeabi_memcpy4 ; 0x8000208
        0x08000ed0:    e894000f    ....    LDM      r4,{r0-r3}
        0x08000ed4:    f002f8c1    ....    BL       USB_DevInit ; 0x800305a
        0x08000ed8:    b110        ..      CBZ      r0,0x8000ee0 ; HAL_PCD_Init + 200
        0x08000eda:    f88462a9    ...b    STRB     r6,[r4,#0x2a9]
        0x08000ede:    e7a5        ..      B        0x8000e2c ; HAL_PCD_Init + 20
        0x08000ee0:    f8845024    ..$P    STRB     r5,[r4,#0x24]
        0x08000ee4:    f88472a9    ...r    STRB     r7,[r4,#0x2a9]
        0x08000ee8:    6820         h      LDR      r0,[r4,#0]
        0x08000eea:    f002f8b4    ....    BL       USB_DevDisconnect ; 0x8003056
        0x08000eee:    2000        .       MOVS     r0,#0
        0x08000ef0:    e79d        ..      B        0x8000e2e ; HAL_PCD_Init + 22
        0x08000ef2:    0000        ..      MOVS     r0,r0
    i.HAL_PCD_MspInit
    HAL_PCD_MspInit
        0x08000ef4:    b508        ..      PUSH     {r3,lr}
        0x08000ef6:    6800        .h      LDR      r0,[r0,#0]
        0x08000ef8:    490b        .I      LDR      r1,[pc,#44] ; [0x8000f28] = 0x40005c00
        0x08000efa:    4288        .B      CMP      r0,r1
        0x08000efc:    d112        ..      BNE      0x8000f24 ; HAL_PCD_MspInit + 48
        0x08000efe:    480b        .H      LDR      r0,[pc,#44] ; [0x8000f2c] = 0x40021000
        0x08000f00:    69c1        .i      LDR      r1,[r0,#0x1c]
        0x08000f02:    f4410100    A...    ORR      r1,r1,#0x800000
        0x08000f06:    61c1        .a      STR      r1,[r0,#0x1c]
        0x08000f08:    69c0        .i      LDR      r0,[r0,#0x1c]
        0x08000f0a:    2200        ."      MOVS     r2,#0
        0x08000f0c:    f4000000    ....    AND      r0,r0,#0x800000
        0x08000f10:    9000        ..      STR      r0,[sp,#0]
        0x08000f12:    4611        .F      MOV      r1,r2
        0x08000f14:    2014        .       MOVS     r0,#0x14
        0x08000f16:    f7fffb6d    ..m.    BL       HAL_NVIC_SetPriority ; 0x80005f4
        0x08000f1a:    e8bd4008    ...@    POP      {r3,lr}
        0x08000f1e:    2014        .       MOVS     r0,#0x14
        0x08000f20:    f7ffbb5a    ..Z.    B        HAL_NVIC_EnableIRQ ; 0x80005d8
        0x08000f24:    bd08        ..      POP      {r3,pc}
    $d
        0x08000f26:    0000        ..      DCW    0
        0x08000f28:    40005c00    .\.@    DCD    1073765376
        0x08000f2c:    40021000    ...@    DCD    1073876992
    $t
    i.HAL_PCD_ResetCallback
    HAL_PCD_ResetCallback
        0x08000f30:    b570        p.      PUSH     {r4-r6,lr}
        0x08000f32:    4604        .F      MOV      r4,r0
        0x08000f34:    6880        .h      LDR      r0,[r0,#8]
        0x08000f36:    2501        .%      MOVS     r5,#1
        0x08000f38:    2802        .(      CMP      r0,#2
        0x08000f3a:    d001        ..      BEQ      0x8000f40 ; HAL_PCD_ResetCallback + 16
        0x08000f3c:    f7fff9fb    ....    BL       Error_Handler ; 0x8000336
        0x08000f40:    4629        )F      MOV      r1,r5
        0x08000f42:    f8d402e8    ....    LDR      r0,[r4,#0x2e8]
        0x08000f46:    f001fbc8    ....    BL       USBD_LL_SetSpeed ; 0x80026da
        0x08000f4a:    f8d402e8    ....    LDR      r0,[r4,#0x2e8]
        0x08000f4e:    e8bd4070    ..p@    POP      {r4-r6,lr}
        0x08000f52:    f001bb84    ....    B.W      USBD_LL_Reset ; 0x800265e
    i.HAL_PCD_ResumeCallback
    HAL_PCD_ResumeCallback
        0x08000f56:    f8d002e8    ....    LDR      r0,[r0,#0x2e8]
        0x08000f5a:    f001bba8    ....    B.W      USBD_LL_Resume ; 0x80026ae
    i.HAL_PCD_SOFCallback
    HAL_PCD_SOFCallback
        0x08000f5e:    f8d002e8    ....    LDR      r0,[r0,#0x2e8]
        0x08000f62:    f001bbae    ....    B.W      USBD_LL_SOF ; 0x80026c2
    i.HAL_PCD_SetAddress
    HAL_PCD_SetAddress
        0x08000f66:    b510        ..      PUSH     {r4,lr}
        0x08000f68:    4604        .F      MOV      r4,r0
        0x08000f6a:    f89002a8    ....    LDRB     r0,[r0,#0x2a8]
        0x08000f6e:    2801        .(      CMP      r0,#1
        0x08000f70:    d00b        ..      BEQ      0x8000f8a ; HAL_PCD_SetAddress + 36
        0x08000f72:    2001        .       MOVS     r0,#1
        0x08000f74:    f88402a8    ....    STRB     r0,[r4,#0x2a8]
        0x08000f78:    f8841024    ..$.    STRB     r1,[r4,#0x24]
        0x08000f7c:    6820         h      LDR      r0,[r4,#0]
        0x08000f7e:    f002fc05    ....    BL       USB_SetDevAddress ; 0x800378c
        0x08000f82:    2000        .       MOVS     r0,#0
        0x08000f84:    f88402a8    ....    STRB     r0,[r4,#0x2a8]
        0x08000f88:    bd10        ..      POP      {r4,pc}
        0x08000f8a:    2002        .       MOVS     r0,#2
        0x08000f8c:    bd10        ..      POP      {r4,pc}
    i.HAL_PCD_SetupStageCallback
    HAL_PCD_SetupStageCallback
        0x08000f8e:    f8d022e8    ..."    LDR      r2,[r0,#0x2e8]
        0x08000f92:    f500712c    ..,q    ADD      r1,r0,#0x2b0
        0x08000f96:    4610        .F      MOV      r0,r2
        0x08000f98:    f001bbab    ....    B.W      USBD_LL_SetupStage ; 0x80026f2
    i.HAL_PCD_Start
    HAL_PCD_Start
        0x08000f9c:    b510        ..      PUSH     {r4,lr}
        0x08000f9e:    4604        .F      MOV      r4,r0
        0x08000fa0:    f89002a8    ....    LDRB     r0,[r0,#0x2a8]
        0x08000fa4:    2801        .(      CMP      r0,#1
        0x08000fa6:    d010        ..      BEQ      0x8000fca ; HAL_PCD_Start + 46
        0x08000fa8:    2001        .       MOVS     r0,#1
        0x08000faa:    f88402a8    ....    STRB     r0,[r4,#0x2a8]
        0x08000fae:    6820         h      LDR      r0,[r4,#0]
        0x08000fb0:    f002fbc0    ....    BL       USB_EnableGlobalInt ; 0x8003734
        0x08000fb4:    2101        .!      MOVS     r1,#1
        0x08000fb6:    4620         F      MOV      r0,r4
        0x08000fb8:    f7fffb6c    ..l.    BL       HAL_PCDEx_SetConnectionState ; 0x8000694
        0x08000fbc:    6820         h      LDR      r0,[r4,#0]
        0x08000fbe:    f002f848    ..H.    BL       USB_DevConnect ; 0x8003052
        0x08000fc2:    2000        .       MOVS     r0,#0
        0x08000fc4:    f88402a8    ....    STRB     r0,[r4,#0x2a8]
        0x08000fc8:    bd10        ..      POP      {r4,pc}
        0x08000fca:    2002        .       MOVS     r0,#2
        0x08000fcc:    bd10        ..      POP      {r4,pc}
        0x08000fce:    0000        ..      MOVS     r0,r0
    i.HAL_PCD_SuspendCallback
    HAL_PCD_SuspendCallback
        0x08000fd0:    b510        ..      PUSH     {r4,lr}
        0x08000fd2:    4604        .F      MOV      r4,r0
        0x08000fd4:    f8d002e8    ....    LDR      r0,[r0,#0x2e8]
        0x08000fd8:    f001fbca    ....    BL       USBD_LL_Suspend ; 0x8002770
        0x08000fdc:    69a0        .i      LDR      r0,[r4,#0x18]
        0x08000fde:    2800        .(      CMP      r0,#0
        0x08000fe0:    d004        ..      BEQ      0x8000fec ; HAL_PCD_SuspendCallback + 28
        0x08000fe2:    4803        .H      LDR      r0,[pc,#12] ; [0x8000ff0] = 0xe000ed10
        0x08000fe4:    6801        .h      LDR      r1,[r0,#0]
        0x08000fe6:    f0410106    A...    ORR      r1,r1,#6
        0x08000fea:    6001        .`      STR      r1,[r0,#0]
        0x08000fec:    bd10        ..      POP      {r4,pc}
    $d
        0x08000fee:    0000        ..      DCW    0
        0x08000ff0:    e000ed10    ....    DCD    3758157072
    $t
    i.HAL_RCCEx_PeriphCLKConfig
    HAL_RCCEx_PeriphCLKConfig
        0x08000ff4:    e92d43f8    -..C    PUSH     {r3-r9,lr}
        0x08000ff8:    4605        .F      MOV      r5,r0
        0x08000ffa:    7800        .x      LDRB     r0,[r0,#0]
        0x08000ffc:    4c35        5L      LDR      r4,[pc,#212] ; [0x80010d4] = 0x40021000
        0x08000ffe:    07c0        ..      LSLS     r0,r0,#31
        0x08001000:    d054        T.      BEQ      0x80010ac ; HAL_RCCEx_PeriphCLKConfig + 184
        0x08001002:    69e0        .i      LDR      r0,[r4,#0x1c]
        0x08001004:    2600        .&      MOVS     r6,#0
        0x08001006:    00c0        ..      LSLS     r0,r0,#3
        0x08001008:    d408        ..      BMI      0x800101c ; HAL_RCCEx_PeriphCLKConfig + 40
        0x0800100a:    69e0        .i      LDR      r0,[r4,#0x1c]
        0x0800100c:    f0405080    @..P    ORR      r0,r0,#0x10000000
        0x08001010:    61e0        .a      STR      r0,[r4,#0x1c]
        0x08001012:    69e0        .i      LDR      r0,[r4,#0x1c]
        0x08001014:    2601        .&      MOVS     r6,#1
        0x08001016:    f0005080    ...P    AND      r0,r0,#0x10000000
        0x0800101a:    9000        ..      STR      r0,[sp,#0]
        0x0800101c:    482e        .H      LDR      r0,[pc,#184] ; [0x80010d8] = 0x40007000
        0x0800101e:    6801        .h      LDR      r1,[r0,#0]
        0x08001020:    05c9        ..      LSLS     r1,r1,#23
        0x08001022:    d412        ..      BMI      0x800104a ; HAL_RCCEx_PeriphCLKConfig + 86
        0x08001024:    6801        .h      LDR      r1,[r0,#0]
        0x08001026:    4680        .F      MOV      r8,r0
        0x08001028:    f4417180    A..q    ORR      r1,r1,#0x100
        0x0800102c:    6001        .`      STR      r1,[r0,#0]
        0x0800102e:    f7fffa75    ..u.    BL       HAL_GetTick ; 0x800051c
        0x08001032:    4607        .F      MOV      r7,r0
        0x08001034:    e005        ..      B        0x8001042 ; HAL_RCCEx_PeriphCLKConfig + 78
        0x08001036:    bf00        ..      NOP      
        0x08001038:    f7fffa70    ..p.    BL       HAL_GetTick ; 0x800051c
        0x0800103c:    1bc0        ..      SUBS     r0,r0,r7
        0x0800103e:    2864        d(      CMP      r0,#0x64
        0x08001040:    d823        #.      BHI      0x800108a ; HAL_RCCEx_PeriphCLKConfig + 150
        0x08001042:    f8d80000    ....    LDR      r0,[r8,#0]
        0x08001046:    05c0        ..      LSLS     r0,r0,#23
        0x08001048:    d5f6        ..      BPL      0x8001038 ; HAL_RCCEx_PeriphCLKConfig + 68
        0x0800104a:    6a20         j      LDR      r0,[r4,#0x20]
        0x0800104c:    f4107040    ..@p    ANDS     r0,r0,#0x300
        0x08001050:    d021        !.      BEQ      0x8001096 ; HAL_RCCEx_PeriphCLKConfig + 162
        0x08001052:    88a9        ..      LDRH     r1,[r5,#4]
        0x08001054:    f4017140    ..@q    AND      r1,r1,#0x300
        0x08001058:    4281        .B      CMP      r1,r0
        0x0800105a:    d01c        ..      BEQ      0x8001096 ; HAL_RCCEx_PeriphCLKConfig + 162
        0x0800105c:    6a20         j      LDR      r0,[r4,#0x20]
        0x0800105e:    491f        .I      LDR      r1,[pc,#124] ; [0x80010dc] = 0x42420440
        0x08001060:    2201        ."      MOVS     r2,#1
        0x08001062:    f4207040     .@p    BIC      r0,r0,#0x300
        0x08001066:    600a        .`      STR      r2,[r1,#0]
        0x08001068:    2200        ."      MOVS     r2,#0
        0x0800106a:    600a        .`      STR      r2,[r1,#0]
        0x0800106c:    6220         b      STR      r0,[r4,#0x20]
        0x0800106e:    07c0        ..      LSLS     r0,r0,#31
        0x08001070:    d011        ..      BEQ      0x8001096 ; HAL_RCCEx_PeriphCLKConfig + 162
        0x08001072:    f7fffa53    ..S.    BL       HAL_GetTick ; 0x800051c
        0x08001076:    4607        .F      MOV      r7,r0
        0x08001078:    f2413888    A..8    MOV      r8,#0x1388
        0x0800107c:    e008        ..      B        0x8001090 ; HAL_RCCEx_PeriphCLKConfig + 156
        0x0800107e:    bf00        ..      NOP      
        0x08001080:    f7fffa4c    ..L.    BL       HAL_GetTick ; 0x800051c
        0x08001084:    1bc1        ..      SUBS     r1,r0,r7
        0x08001086:    4541        AE      CMP      r1,r8
        0x08001088:    d902        ..      BLS      0x8001090 ; HAL_RCCEx_PeriphCLKConfig + 156
        0x0800108a:    2003        .       MOVS     r0,#3
        0x0800108c:    e8bd83f8    ....    POP      {r3-r9,pc}
        0x08001090:    6a20         j      LDR      r0,[r4,#0x20]
        0x08001092:    0780        ..      LSLS     r0,r0,#30
        0x08001094:    d5f4        ..      BPL      0x8001080 ; HAL_RCCEx_PeriphCLKConfig + 140
        0x08001096:    6a20         j      LDR      r0,[r4,#0x20]
        0x08001098:    6869        ih      LDR      r1,[r5,#4]
        0x0800109a:    f4207040     .@p    BIC      r0,r0,#0x300
        0x0800109e:    4308        .C      ORRS     r0,r0,r1
        0x080010a0:    6220         b      STR      r0,[r4,#0x20]
        0x080010a2:    b11e        ..      CBZ      r6,0x80010ac ; HAL_RCCEx_PeriphCLKConfig + 184
        0x080010a4:    69e0        .i      LDR      r0,[r4,#0x1c]
        0x080010a6:    f0205080     ..P    BIC      r0,r0,#0x10000000
        0x080010aa:    61e0        .a      STR      r0,[r4,#0x1c]
        0x080010ac:    7828        (x      LDRB     r0,[r5,#0]
        0x080010ae:    0780        ..      LSLS     r0,r0,#30
        0x080010b0:    d505        ..      BPL      0x80010be ; HAL_RCCEx_PeriphCLKConfig + 202
        0x080010b2:    6860        `h      LDR      r0,[r4,#4]
        0x080010b4:    68a9        .h      LDR      r1,[r5,#8]
        0x080010b6:    f4204040     .@@    BIC      r0,r0,#0xc000
        0x080010ba:    4308        .C      ORRS     r0,r0,r1
        0x080010bc:    6060        ``      STR      r0,[r4,#4]
        0x080010be:    7828        (x      LDRB     r0,[r5,#0]
        0x080010c0:    06c0        ..      LSLS     r0,r0,#27
        0x080010c2:    d505        ..      BPL      0x80010d0 ; HAL_RCCEx_PeriphCLKConfig + 220
        0x080010c4:    6860        `h      LDR      r0,[r4,#4]
        0x080010c6:    68e9        .h      LDR      r1,[r5,#0xc]
        0x080010c8:    f4200080     ...    BIC      r0,r0,#0x400000
        0x080010cc:    4308        .C      ORRS     r0,r0,r1
        0x080010ce:    6060        ``      STR      r0,[r4,#4]
        0x080010d0:    2000        .       MOVS     r0,#0
        0x080010d2:    e7db        ..      B        0x800108c ; HAL_RCCEx_PeriphCLKConfig + 152
    $d
        0x080010d4:    40021000    ...@    DCD    1073876992
        0x080010d8:    40007000    .p.@    DCD    1073770496
        0x080010dc:    42420440    @.BB    DCD    1111622720
    $t
    i.HAL_RCC_ClockConfig
    HAL_RCC_ClockConfig
        0x080010e0:    e92d47f0    -..G    PUSH     {r4-r10,lr}
        0x080010e4:    460f        .F      MOV      r7,r1
        0x080010e6:    0005        ..      MOVS     r5,r0
        0x080010e8:    d061        a.      BEQ      0x80011ae ; HAL_RCC_ClockConfig + 206
        0x080010ea:    4e43        CN      LDR      r6,[pc,#268] ; [0x80011f8] = 0x40022000
        0x080010ec:    6830        0h      LDR      r0,[r6,#0]
        0x080010ee:    f0000007    ....    AND      r0,r0,#7
        0x080010f2:    42b8        .B      CMP      r0,r7
        0x080010f4:    d209        ..      BCS      0x800110a ; HAL_RCC_ClockConfig + 42
        0x080010f6:    6830        0h      LDR      r0,[r6,#0]
        0x080010f8:    f0200007     ...    BIC      r0,r0,#7
        0x080010fc:    4338        8C      ORRS     r0,r0,r7
        0x080010fe:    6030        0`      STR      r0,[r6,#0]
        0x08001100:    6830        0h      LDR      r0,[r6,#0]
        0x08001102:    f0000007    ....    AND      r0,r0,#7
        0x08001106:    42b8        .B      CMP      r0,r7
        0x08001108:    d151        Q.      BNE      0x80011ae ; HAL_RCC_ClockConfig + 206
        0x0800110a:    6828        (h      LDR      r0,[r5,#0]
        0x0800110c:    4c3b        ;L      LDR      r4,[pc,#236] ; [0x80011fc] = 0x40021000
        0x0800110e:    0781        ..      LSLS     r1,r0,#30
        0x08001110:    d512        ..      BPL      0x8001138 ; HAL_RCC_ClockConfig + 88
        0x08001112:    0740        @.      LSLS     r0,r0,#29
        0x08001114:    d503        ..      BPL      0x800111e ; HAL_RCC_ClockConfig + 62
        0x08001116:    6860        `h      LDR      r0,[r4,#4]
        0x08001118:    f44060e0    @..`    ORR      r0,r0,#0x700
        0x0800111c:    6060        ``      STR      r0,[r4,#4]
        0x0800111e:    7828        (x      LDRB     r0,[r5,#0]
        0x08001120:    0700        ..      LSLS     r0,r0,#28
        0x08001122:    d503        ..      BPL      0x800112c ; HAL_RCC_ClockConfig + 76
        0x08001124:    6860        `h      LDR      r0,[r4,#4]
        0x08001126:    f4405060    @.`P    ORR      r0,r0,#0x3800
        0x0800112a:    6060        ``      STR      r0,[r4,#4]
        0x0800112c:    6860        `h      LDR      r0,[r4,#4]
        0x0800112e:    68a9        .h      LDR      r1,[r5,#8]
        0x08001130:    f02000f0     ...    BIC      r0,r0,#0xf0
        0x08001134:    4308        .C      ORRS     r0,r0,r1
        0x08001136:    6060        ``      STR      r0,[r4,#4]
        0x08001138:    7828        (x      LDRB     r0,[r5,#0]
        0x0800113a:    07c0        ..      LSLS     r0,r0,#31
        0x0800113c:    d028        (.      BEQ      0x8001190 ; HAL_RCC_ClockConfig + 176
        0x0800113e:    6868        hh      LDR      r0,[r5,#4]
        0x08001140:    2801        .(      CMP      r0,#1
        0x08001142:    d010        ..      BEQ      0x8001166 ; HAL_RCC_ClockConfig + 134
        0x08001144:    6821        !h      LDR      r1,[r4,#0]
        0x08001146:    2802        .(      CMP      r0,#2
        0x08001148:    d010        ..      BEQ      0x800116c ; HAL_RCC_ClockConfig + 140
        0x0800114a:    0789        ..      LSLS     r1,r1,#30
        0x0800114c:    2900        .)      CMP      r1,#0
        0x0800114e:    da2e        ..      BGE      0x80011ae ; HAL_RCC_ClockConfig + 206
        0x08001150:    6861        ah      LDR      r1,[r4,#4]
        0x08001152:    f0210103    !...    BIC      r1,r1,#3
        0x08001156:    4301        .C      ORRS     r1,r1,r0
        0x08001158:    6061        a`      STR      r1,[r4,#4]
        0x0800115a:    f7fff9df    ....    BL       HAL_GetTick ; 0x800051c
        0x0800115e:    4680        .F      MOV      r8,r0
        0x08001160:    f2413988    A..9    MOV      r9,#0x1388
        0x08001164:    e00d        ..      B        0x8001182 ; HAL_RCC_ClockConfig + 162
        0x08001166:    6821        !h      LDR      r1,[r4,#0]
        0x08001168:    0389        ..      LSLS     r1,r1,#14
        0x0800116a:    e7ef        ..      B        0x800114c ; HAL_RCC_ClockConfig + 108
        0x0800116c:    0189        ..      LSLS     r1,r1,#6
        0x0800116e:    e7ed        ..      B        0x800114c ; HAL_RCC_ClockConfig + 108
        0x08001170:    f7fff9d4    ....    BL       HAL_GetTick ; 0x800051c
        0x08001174:    eba00108    ....    SUB      r1,r0,r8
        0x08001178:    4549        IE      CMP      r1,r9
        0x0800117a:    d902        ..      BLS      0x8001182 ; HAL_RCC_ClockConfig + 162
        0x0800117c:    2003        .       MOVS     r0,#3
        0x0800117e:    e8bd87f0    ....    POP      {r4-r10,pc}
        0x08001182:    6860        `h      LDR      r0,[r4,#4]
        0x08001184:    6869        ih      LDR      r1,[r5,#4]
        0x08001186:    f000000c    ....    AND      r0,r0,#0xc
        0x0800118a:    ebb00f81    ....    CMP      r0,r1,LSL #2
        0x0800118e:    d1ef        ..      BNE      0x8001170 ; HAL_RCC_ClockConfig + 144
        0x08001190:    6830        0h      LDR      r0,[r6,#0]
        0x08001192:    f0000007    ....    AND      r0,r0,#7
        0x08001196:    42b8        .B      CMP      r0,r7
        0x08001198:    d90b        ..      BLS      0x80011b2 ; HAL_RCC_ClockConfig + 210
        0x0800119a:    6830        0h      LDR      r0,[r6,#0]
        0x0800119c:    f0200007     ...    BIC      r0,r0,#7
        0x080011a0:    4338        8C      ORRS     r0,r0,r7
        0x080011a2:    6030        0`      STR      r0,[r6,#0]
        0x080011a4:    6830        0h      LDR      r0,[r6,#0]
        0x080011a6:    f0000007    ....    AND      r0,r0,#7
        0x080011aa:    42b8        .B      CMP      r0,r7
        0x080011ac:    d001        ..      BEQ      0x80011b2 ; HAL_RCC_ClockConfig + 210
        0x080011ae:    2001        .       MOVS     r0,#1
        0x080011b0:    e7e5        ..      B        0x800117e ; HAL_RCC_ClockConfig + 158
        0x080011b2:    7828        (x      LDRB     r0,[r5,#0]
        0x080011b4:    0740        @.      LSLS     r0,r0,#29
        0x080011b6:    d505        ..      BPL      0x80011c4 ; HAL_RCC_ClockConfig + 228
        0x080011b8:    6860        `h      LDR      r0,[r4,#4]
        0x080011ba:    68e9        .h      LDR      r1,[r5,#0xc]
        0x080011bc:    f42060e0     ..`    BIC      r0,r0,#0x700
        0x080011c0:    4308        .C      ORRS     r0,r0,r1
        0x080011c2:    6060        ``      STR      r0,[r4,#4]
        0x080011c4:    7828        (x      LDRB     r0,[r5,#0]
        0x080011c6:    0700        ..      LSLS     r0,r0,#28
        0x080011c8:    d506        ..      BPL      0x80011d8 ; HAL_RCC_ClockConfig + 248
        0x080011ca:    6860        `h      LDR      r0,[r4,#4]
        0x080011cc:    6929        )i      LDR      r1,[r5,#0x10]
        0x080011ce:    f4205060     .`P    BIC      r0,r0,#0x3800
        0x080011d2:    ea4000c1    @...    ORR      r0,r0,r1,LSL #3
        0x080011d6:    6060        ``      STR      r0,[r4,#4]
        0x080011d8:    f000f838    ..8.    BL       HAL_RCC_GetSysClockFreq ; 0x800124c
        0x080011dc:    6861        ah      LDR      r1,[r4,#4]
        0x080011de:    4a08        .J      LDR      r2,[pc,#32] ; [0x8001200] = 0x8003812
        0x080011e0:    f3c11103    ....    UBFX     r1,r1,#4,#4
        0x080011e4:    5c51        Q\      LDRB     r1,[r2,r1]
        0x080011e6:    40c8        .@      LSRS     r0,r0,r1
        0x080011e8:    4906        .I      LDR      r1,[pc,#24] ; [0x8001204] = 0x20000074
        0x080011ea:    6008        .`      STR      r0,[r1,#0]
        0x080011ec:    4806        .H      LDR      r0,[pc,#24] ; [0x8001208] = 0x2000006c
        0x080011ee:    6800        .h      LDR      r0,[r0,#0]
        0x080011f0:    f7fff9b4    ....    BL       HAL_InitTick ; 0x800055c
        0x080011f4:    2000        .       MOVS     r0,#0
        0x080011f6:    e7c2        ..      B        0x800117e ; HAL_RCC_ClockConfig + 158
    $d
        0x080011f8:    40022000    . .@    DCD    1073881088
        0x080011fc:    40021000    ...@    DCD    1073876992
        0x08001200:    08003812    .8..    DCD    134232082
        0x08001204:    20000074    t..     DCD    536871028
        0x08001208:    2000006c    l..     DCD    536871020
    $t
    i.HAL_RCC_GetPCLK1Freq
    HAL_RCC_GetPCLK1Freq
        0x0800120c:    4804        .H      LDR      r0,[pc,#16] ; [0x8001220] = 0x20000074
        0x0800120e:    4905        .I      LDR      r1,[pc,#20] ; [0x8001224] = 0x40021000
        0x08001210:    6800        .h      LDR      r0,[r0,#0]
        0x08001212:    6849        Ih      LDR      r1,[r1,#4]
        0x08001214:    4a04        .J      LDR      r2,[pc,#16] ; [0x8001228] = 0x8003822
        0x08001216:    f3c12102    ...!    UBFX     r1,r1,#8,#3
        0x0800121a:    5c51        Q\      LDRB     r1,[r2,r1]
        0x0800121c:    40c8        .@      LSRS     r0,r0,r1
        0x0800121e:    4770        pG      BX       lr
    $d
        0x08001220:    20000074    t..     DCD    536871028
        0x08001224:    40021000    ...@    DCD    1073876992
        0x08001228:    08003822    "8..    DCD    134232098
    $t
    i.HAL_RCC_GetPCLK2Freq
    HAL_RCC_GetPCLK2Freq
        0x0800122c:    4804        .H      LDR      r0,[pc,#16] ; [0x8001240] = 0x20000074
        0x0800122e:    4905        .I      LDR      r1,[pc,#20] ; [0x8001244] = 0x40021000
        0x08001230:    6800        .h      LDR      r0,[r0,#0]
        0x08001232:    6849        Ih      LDR      r1,[r1,#4]
        0x08001234:    4a04        .J      LDR      r2,[pc,#16] ; [0x8001248] = 0x8003822
        0x08001236:    f3c121c2    ...!    UBFX     r1,r1,#11,#3
        0x0800123a:    5c51        Q\      LDRB     r1,[r2,r1]
        0x0800123c:    40c8        .@      LSRS     r0,r0,r1
        0x0800123e:    4770        pG      BX       lr
    $d
        0x08001240:    20000074    t..     DCD    536871028
        0x08001244:    40021000    ...@    DCD    1073876992
        0x08001248:    08003822    "8..    DCD    134232098
    $t
    i.HAL_RCC_GetSysClockFreq
    HAL_RCC_GetSysClockFreq
        0x0800124c:    a112        ..      ADR      r1,{pc}+0x4c ; 0x8001298
        0x0800124e:    b085        ..      SUB      sp,sp,#0x14
        0x08001250:    c90f        ..      LDM      r1,{r0-r3}
        0x08001252:    e88d000f    ....    STM      sp,{r0-r3}
        0x08001256:    a014        ..      ADR      r0,{pc}+0x52 ; 0x80012a8
        0x08001258:    4a14        .J      LDR      r2,[pc,#80] ; [0x80012ac] = 0x40021000
        0x0800125a:    6800        .h      LDR      r0,[r0,#0]
        0x0800125c:    9004        ..      STR      r0,[sp,#0x10]
        0x0800125e:    6851        Qh      LDR      r1,[r2,#4]
        0x08001260:    4813        .H      LDR      r0,[pc,#76] ; [0x80012b0] = 0x7a1200
        0x08001262:    f001030c    ....    AND      r3,r1,#0xc
        0x08001266:    2b04        .+      CMP      r3,#4
        0x08001268:    d010        ..      BEQ      0x800128c ; HAL_RCC_GetSysClockFreq + 64
        0x0800126a:    2b08        .+      CMP      r3,#8
        0x0800126c:    d10e        ..      BNE      0x800128c ; HAL_RCC_GetSysClockFreq + 64
        0x0800126e:    f3c14383    ...C    UBFX     r3,r1,#18,#4
        0x08001272:    03c9        ..      LSLS     r1,r1,#15
        0x08001274:    f81d0003    ....    LDRB     r0,[sp,r3]
        0x08001278:    d50a        ..      BPL      0x8001290 ; HAL_RCC_GetSysClockFreq + 68
        0x0800127a:    6851        Qh      LDR      r1,[r2,#4]
        0x0800127c:    aa04        ..      ADD      r2,sp,#0x10
        0x0800127e:    f3c14140    ..@A    UBFX     r1,r1,#17,#1
        0x08001282:    5c51        Q\      LDRB     r1,[r2,r1]
        0x08001284:    4a0a        .J      LDR      r2,[pc,#40] ; [0x80012b0] = 0x7a1200
        0x08001286:    4350        PC      MULS     r0,r2,r0
        0x08001288:    fbb0f0f1    ....    UDIV     r0,r0,r1
        0x0800128c:    b005        ..      ADD      sp,sp,#0x14
        0x0800128e:    4770        pG      BX       lr
        0x08001290:    4908        .I      LDR      r1,[pc,#32] ; [0x80012b4] = 0x3d0900
        0x08001292:    4348        HC      MULS     r0,r1,r0
        0x08001294:    e7fa        ..      B        0x800128c ; HAL_RCC_GetSysClockFreq + 64
    $d
        0x08001296:    0000        ..      DCW    0
        0x08001298:    05040302    ....    DCD    84148994
        0x0800129c:    09080706    ....    DCD    151521030
        0x080012a0:    0d0c0b0a    ....    DCD    218893066
        0x080012a4:    10100f0e    ....    DCD    269487886
        0x080012a8:    00000201    ....    DCD    513
        0x080012ac:    40021000    ...@    DCD    1073876992
        0x080012b0:    007a1200    ..z.    DCD    8000000
        0x080012b4:    003d0900    ..=.    DCD    4000000
    $t
    i.HAL_RCC_OscConfig
    HAL_RCC_OscConfig
        0x080012b8:    e92d4ff8    -..O    PUSH     {r3-r11,lr}
        0x080012bc:    0004        ..      MOVS     r4,r0
        0x080012be:    d070        p.      BEQ      0x80013a2 ; HAL_RCC_OscConfig + 234
        0x080012c0:    7820         x      LDRB     r0,[r4,#0]
        0x080012c2:    4dc0        .M      LDR      r5,[pc,#768] ; [0x80015c4] = 0x40021000
        0x080012c4:    07c0        ..      LSLS     r0,r0,#31
        0x080012c6:    d049        I.      BEQ      0x800135c ; HAL_RCC_OscConfig + 164
        0x080012c8:    6868        hh      LDR      r0,[r5,#4]
        0x080012ca:    f3c00081    ....    UBFX     r0,r0,#2,#2
        0x080012ce:    2801        .(      CMP      r0,#1
        0x080012d0:    d007        ..      BEQ      0x80012e2 ; HAL_RCC_OscConfig + 42
        0x080012d2:    6868        hh      LDR      r0,[r5,#4]
        0x080012d4:    f3c00081    ....    UBFX     r0,r0,#2,#2
        0x080012d8:    2802        .(      CMP      r0,#2
        0x080012da:    d109        ..      BNE      0x80012f0 ; HAL_RCC_OscConfig + 56
        0x080012dc:    6868        hh      LDR      r0,[r5,#4]
        0x080012de:    03c0        ..      LSLS     r0,r0,#15
        0x080012e0:    d506        ..      BPL      0x80012f0 ; HAL_RCC_OscConfig + 56
        0x080012e2:    6828        (h      LDR      r0,[r5,#0]
        0x080012e4:    0380        ..      LSLS     r0,r0,#14
        0x080012e6:    d539        9.      BPL      0x800135c ; HAL_RCC_OscConfig + 164
        0x080012e8:    6860        `h      LDR      r0,[r4,#4]
        0x080012ea:    2800        .(      CMP      r0,#0
        0x080012ec:    d0e7        ..      BEQ      0x80012be ; HAL_RCC_OscConfig + 6
        0x080012ee:    e035        5.      B        0x800135c ; HAL_RCC_OscConfig + 164
        0x080012f0:    6860        `h      LDR      r0,[r4,#4]
        0x080012f2:    f5b03f80    ...?    CMP      r0,#0x10000
        0x080012f6:    d00b        ..      BEQ      0x8001310 ; HAL_RCC_OscConfig + 88
        0x080012f8:    b110        ..      CBZ      r0,0x8001300 ; HAL_RCC_OscConfig + 72
        0x080012fa:    f5b02fa0    .../    CMP      r0,#0x50000
        0x080012fe:    d011        ..      BEQ      0x8001324 ; HAL_RCC_OscConfig + 108
        0x08001300:    6828        (h      LDR      r0,[r5,#0]
        0x08001302:    f4203080     ..0    BIC      r0,r0,#0x10000
        0x08001306:    6028        (`      STR      r0,[r5,#0]
        0x08001308:    6828        (h      LDR      r0,[r5,#0]
        0x0800130a:    f4202080     ..     BIC      r0,r0,#0x40000
        0x0800130e:    e002        ..      B        0x8001316 ; HAL_RCC_OscConfig + 94
        0x08001310:    6828        (h      LDR      r0,[r5,#0]
        0x08001312:    f4403080    @..0    ORR      r0,r0,#0x10000
        0x08001316:    6028        (`      STR      r0,[r5,#0]
        0x08001318:    6860        `h      LDR      r0,[r4,#4]
        0x0800131a:    b190        ..      CBZ      r0,0x8001342 ; HAL_RCC_OscConfig + 138
        0x0800131c:    f7fff8fe    ....    BL       HAL_GetTick ; 0x800051c
        0x08001320:    4606        .F      MOV      r6,r0
        0x08001322:    e00a        ..      B        0x800133a ; HAL_RCC_OscConfig + 130
        0x08001324:    6828        (h      LDR      r0,[r5,#0]
        0x08001326:    f4402080    @..     ORR      r0,r0,#0x40000
        0x0800132a:    6028        (`      STR      r0,[r5,#0]
        0x0800132c:    e7f0        ..      B        0x8001310 ; HAL_RCC_OscConfig + 88
        0x0800132e:    bf00        ..      NOP      
        0x08001330:    f7fff8f4    ....    BL       HAL_GetTick ; 0x800051c
        0x08001334:    1b80        ..      SUBS     r0,r0,r6
        0x08001336:    2864        d(      CMP      r0,#0x64
        0x08001338:    d873        s.      BHI      0x8001422 ; HAL_RCC_OscConfig + 362
        0x0800133a:    6828        (h      LDR      r0,[r5,#0]
        0x0800133c:    0380        ..      LSLS     r0,r0,#14
        0x0800133e:    d5f7        ..      BPL      0x8001330 ; HAL_RCC_OscConfig + 120
        0x08001340:    e00c        ..      B        0x800135c ; HAL_RCC_OscConfig + 164
        0x08001342:    f7fff8eb    ....    BL       HAL_GetTick ; 0x800051c
        0x08001346:    4606        .F      MOV      r6,r0
        0x08001348:    e005        ..      B        0x8001356 ; HAL_RCC_OscConfig + 158
        0x0800134a:    bf00        ..      NOP      
        0x0800134c:    f7fff8e6    ....    BL       HAL_GetTick ; 0x800051c
        0x08001350:    1b80        ..      SUBS     r0,r0,r6
        0x08001352:    2864        d(      CMP      r0,#0x64
        0x08001354:    d8f0        ..      BHI      0x8001338 ; HAL_RCC_OscConfig + 128
        0x08001356:    6828        (h      LDR      r0,[r5,#0]
        0x08001358:    0380        ..      LSLS     r0,r0,#14
        0x0800135a:    d4f7        ..      BMI      0x800134c ; HAL_RCC_OscConfig + 148
        0x0800135c:    7820         x      LDRB     r0,[r4,#0]
        0x0800135e:    4e9a        .N      LDR      r6,[pc,#616] ; [0x80015c8] = 0x42420000
        0x08001360:    0780        ..      LSLS     r0,r0,#30
        0x08001362:    f04f0901    O...    MOV      r9,#1
        0x08001366:    f04f0800    O...    MOV      r8,#0
        0x0800136a:    d539        9.      BPL      0x80013e0 ; HAL_RCC_OscConfig + 296
        0x0800136c:    6868        hh      LDR      r0,[r5,#4]
        0x0800136e:    f0100f0c    ....    TST      r0,#0xc
        0x08001372:    d007        ..      BEQ      0x8001384 ; HAL_RCC_OscConfig + 204
        0x08001374:    6868        hh      LDR      r0,[r5,#4]
        0x08001376:    f3c00081    ....    UBFX     r0,r0,#2,#2
        0x0800137a:    2802        .(      CMP      r0,#2
        0x0800137c:    d109        ..      BNE      0x8001392 ; HAL_RCC_OscConfig + 218
        0x0800137e:    6868        hh      LDR      r0,[r5,#4]
        0x08001380:    03c0        ..      LSLS     r0,r0,#15
        0x08001382:    d406        ..      BMI      0x8001392 ; HAL_RCC_OscConfig + 218
        0x08001384:    6828        (h      LDR      r0,[r5,#0]
        0x08001386:    0780        ..      LSLS     r0,r0,#30
        0x08001388:    d514        ..      BPL      0x80013b4 ; HAL_RCC_OscConfig + 252
        0x0800138a:    6920         i      LDR      r0,[r4,#0x10]
        0x0800138c:    2801        .(      CMP      r0,#1
        0x0800138e:    d108        ..      BNE      0x80013a2 ; HAL_RCC_OscConfig + 234
        0x08001390:    e010        ..      B        0x80013b4 ; HAL_RCC_OscConfig + 252
        0x08001392:    6920         i      LDR      r0,[r4,#0x10]
        0x08001394:    b1b0        ..      CBZ      r0,0x80013c4 ; HAL_RCC_OscConfig + 268
        0x08001396:    f8c69000    ....    STR      r9,[r6,#0]
        0x0800139a:    f7fff8bf    ....    BL       HAL_GetTick ; 0x800051c
        0x0800139e:    4607        .F      MOV      r7,r0
        0x080013a0:    e005        ..      B        0x80013ae ; HAL_RCC_OscConfig + 246
        0x080013a2:    e10a        ..      B        0x80015ba ; HAL_RCC_OscConfig + 770
        0x080013a4:    f7fff8ba    ....    BL       HAL_GetTick ; 0x800051c
        0x080013a8:    1bc0        ..      SUBS     r0,r0,r7
        0x080013aa:    2802        .(      CMP      r0,#2
        0x080013ac:    d8c4        ..      BHI      0x8001338 ; HAL_RCC_OscConfig + 128
        0x080013ae:    6828        (h      LDR      r0,[r5,#0]
        0x080013b0:    0780        ..      LSLS     r0,r0,#30
        0x080013b2:    d5f7        ..      BPL      0x80013a4 ; HAL_RCC_OscConfig + 236
        0x080013b4:    6828        (h      LDR      r0,[r5,#0]
        0x080013b6:    6961        ai      LDR      r1,[r4,#0x14]
        0x080013b8:    f02000f8     ...    BIC      r0,r0,#0xf8
        0x080013bc:    ea4000c1    @...    ORR      r0,r0,r1,LSL #3
        0x080013c0:    6028        (`      STR      r0,[r5,#0]
        0x080013c2:    e00d        ..      B        0x80013e0 ; HAL_RCC_OscConfig + 296
        0x080013c4:    f8c68000    ....    STR      r8,[r6,#0]
        0x080013c8:    f7fff8a8    ....    BL       HAL_GetTick ; 0x800051c
        0x080013cc:    4607        .F      MOV      r7,r0
        0x080013ce:    e004        ..      B        0x80013da ; HAL_RCC_OscConfig + 290
        0x080013d0:    f7fff8a4    ....    BL       HAL_GetTick ; 0x800051c
        0x080013d4:    1bc0        ..      SUBS     r0,r0,r7
        0x080013d6:    2802        .(      CMP      r0,#2
        0x080013d8:    d823        #.      BHI      0x8001422 ; HAL_RCC_OscConfig + 362
        0x080013da:    6828        (h      LDR      r0,[r5,#0]
        0x080013dc:    0780        ..      LSLS     r0,r0,#30
        0x080013de:    d4f7        ..      BMI      0x80013d0 ; HAL_RCC_OscConfig + 280
        0x080013e0:    7820         x      LDRB     r0,[r4,#0]
        0x080013e2:    0700        ..      LSLS     r0,r0,#28
        0x080013e4:    d52c        ,.      BPL      0x8001440 ; HAL_RCC_OscConfig + 392
        0x080013e6:    4879        yH      LDR      r0,[pc,#484] ; [0x80015cc] = 0x42420480
        0x080013e8:    69a1        .i      LDR      r1,[r4,#0x18]
        0x080013ea:    b1d9        ..      CBZ      r1,0x8001424 ; HAL_RCC_OscConfig + 364
        0x080013ec:    f8c09000    ....    STR      r9,[r0,#0]
        0x080013f0:    f7fff894    ....    BL       HAL_GetTick ; 0x800051c
        0x080013f4:    4607        .F      MOV      r7,r0
        0x080013f6:    e004        ..      B        0x8001402 ; HAL_RCC_OscConfig + 330
        0x080013f8:    f7fff890    ....    BL       HAL_GetTick ; 0x800051c
        0x080013fc:    1bc0        ..      SUBS     r0,r0,r7
        0x080013fe:    2802        .(      CMP      r0,#2
        0x08001400:    d80f        ..      BHI      0x8001422 ; HAL_RCC_OscConfig + 362
        0x08001402:    6a68        hj      LDR      r0,[r5,#0x24]
        0x08001404:    0780        ..      LSLS     r0,r0,#30
        0x08001406:    d5f7        ..      BPL      0x80013f8 ; HAL_RCC_OscConfig + 320
        0x08001408:    4871        qH      LDR      r0,[pc,#452] ; [0x80015d0] = 0x20000074
        0x0800140a:    f44f51fa    O..Q    MOV      r1,#0x1f40
        0x0800140e:    6800        .h      LDR      r0,[r0,#0]
        0x08001410:    fbb0f0f1    ....    UDIV     r0,r0,r1
        0x08001414:    9000        ..      STR      r0,[sp,#0]
        0x08001416:    bf00        ..      NOP      
        0x08001418:    9800        ..      LDR      r0,[sp,#0]
        0x0800141a:    1e41        A.      SUBS     r1,r0,#1
        0x0800141c:    9100        ..      STR      r1,[sp,#0]
        0x0800141e:    d2fa        ..      BCS      0x8001416 ; HAL_RCC_OscConfig + 350
        0x08001420:    e00e        ..      B        0x8001440 ; HAL_RCC_OscConfig + 392
        0x08001422:    e080        ..      B        0x8001526 ; HAL_RCC_OscConfig + 622
        0x08001424:    f8c08000    ....    STR      r8,[r0,#0]
        0x08001428:    f7fff878    ..x.    BL       HAL_GetTick ; 0x800051c
        0x0800142c:    4607        .F      MOV      r7,r0
        0x0800142e:    e004        ..      B        0x800143a ; HAL_RCC_OscConfig + 386
        0x08001430:    f7fff874    ..t.    BL       HAL_GetTick ; 0x800051c
        0x08001434:    1bc0        ..      SUBS     r0,r0,r7
        0x08001436:    2802        .(      CMP      r0,#2
        0x08001438:    d875        u.      BHI      0x8001526 ; HAL_RCC_OscConfig + 622
        0x0800143a:    6a68        hj      LDR      r0,[r5,#0x24]
        0x0800143c:    0780        ..      LSLS     r0,r0,#30
        0x0800143e:    d4f7        ..      BMI      0x8001430 ; HAL_RCC_OscConfig + 376
        0x08001440:    7820         x      LDRB     r0,[r4,#0]
        0x08001442:    0740        @.      LSLS     r0,r0,#29
        0x08001444:    d560        `.      BPL      0x8001508 ; HAL_RCC_OscConfig + 592
        0x08001446:    69e8        .i      LDR      r0,[r5,#0x1c]
        0x08001448:    2700        .'      MOVS     r7,#0
        0x0800144a:    00c0        ..      LSLS     r0,r0,#3
        0x0800144c:    d408        ..      BMI      0x8001460 ; HAL_RCC_OscConfig + 424
        0x0800144e:    69e8        .i      LDR      r0,[r5,#0x1c]
        0x08001450:    f0405080    @..P    ORR      r0,r0,#0x10000000
        0x08001454:    61e8        .a      STR      r0,[r5,#0x1c]
        0x08001456:    69e8        .i      LDR      r0,[r5,#0x1c]
        0x08001458:    2701        .'      MOVS     r7,#1
        0x0800145a:    f0005080    ...P    AND      r0,r0,#0x10000000
        0x0800145e:    9000        ..      STR      r0,[sp,#0]
        0x08001460:    485c        \H      LDR      r0,[pc,#368] ; [0x80015d4] = 0x40007000
        0x08001462:    6801        .h      LDR      r1,[r0,#0]
        0x08001464:    05c9        ..      LSLS     r1,r1,#23
        0x08001466:    d413        ..      BMI      0x8001490 ; HAL_RCC_OscConfig + 472
        0x08001468:    6801        .h      LDR      r1,[r0,#0]
        0x0800146a:    4683        .F      MOV      r11,r0
        0x0800146c:    f4417180    A..q    ORR      r1,r1,#0x100
        0x08001470:    6001        .`      STR      r1,[r0,#0]
        0x08001472:    f7fff853    ..S.    BL       HAL_GetTick ; 0x800051c
        0x08001476:    4682        .F      MOV      r10,r0
        0x08001478:    e006        ..      B        0x8001488 ; HAL_RCC_OscConfig + 464
        0x0800147a:    bf00        ..      NOP      
        0x0800147c:    f7fff84e    ..N.    BL       HAL_GetTick ; 0x800051c
        0x08001480:    eba0000a    ....    SUB      r0,r0,r10
        0x08001484:    2864        d(      CMP      r0,#0x64
        0x08001486:    d84e        N.      BHI      0x8001526 ; HAL_RCC_OscConfig + 622
        0x08001488:    f8db0000    ....    LDR      r0,[r11,#0]
        0x0800148c:    05c0        ..      LSLS     r0,r0,#23
        0x0800148e:    d5f5        ..      BPL      0x800147c ; HAL_RCC_OscConfig + 452
        0x08001490:    68e0        .h      LDR      r0,[r4,#0xc]
        0x08001492:    2801        .(      CMP      r0,#1
        0x08001494:    d00a        ..      BEQ      0x80014ac ; HAL_RCC_OscConfig + 500
        0x08001496:    b108        ..      CBZ      r0,0x800149c ; HAL_RCC_OscConfig + 484
        0x08001498:    2805        .(      CMP      r0,#5
        0x0800149a:    d013        ..      BEQ      0x80014c4 ; HAL_RCC_OscConfig + 524
        0x0800149c:    6a28        (j      LDR      r0,[r5,#0x20]
        0x0800149e:    f0200001     ...    BIC      r0,r0,#1
        0x080014a2:    6228        (b      STR      r0,[r5,#0x20]
        0x080014a4:    6a28        (j      LDR      r0,[r5,#0x20]
        0x080014a6:    f0200004     ...    BIC      r0,r0,#4
        0x080014aa:    e002        ..      B        0x80014b2 ; HAL_RCC_OscConfig + 506
        0x080014ac:    6a28        (j      LDR      r0,[r5,#0x20]
        0x080014ae:    f0400001    @...    ORR      r0,r0,#1
        0x080014b2:    6228        (b      STR      r0,[r5,#0x20]
        0x080014b4:    68e0        .h      LDR      r0,[r4,#0xc]
        0x080014b6:    f2413b88    A..;    MOV      r11,#0x1388
        0x080014ba:    b198        ..      CBZ      r0,0x80014e4 ; HAL_RCC_OscConfig + 556
        0x080014bc:    f7fff82e    ....    BL       HAL_GetTick ; 0x800051c
        0x080014c0:    4682        .F      MOV      r10,r0
        0x080014c2:    e00b        ..      B        0x80014dc ; HAL_RCC_OscConfig + 548
        0x080014c4:    6a28        (j      LDR      r0,[r5,#0x20]
        0x080014c6:    f0400004    @...    ORR      r0,r0,#4
        0x080014ca:    6228        (b      STR      r0,[r5,#0x20]
        0x080014cc:    e7ee        ..      B        0x80014ac ; HAL_RCC_OscConfig + 500
        0x080014ce:    bf00        ..      NOP      
        0x080014d0:    f7fff824    ..$.    BL       HAL_GetTick ; 0x800051c
        0x080014d4:    eba0010a    ....    SUB      r1,r0,r10
        0x080014d8:    4559        YE      CMP      r1,r11
        0x080014da:    d85a        Z.      BHI      0x8001592 ; HAL_RCC_OscConfig + 730
        0x080014dc:    6a28        (j      LDR      r0,[r5,#0x20]
        0x080014de:    0780        ..      LSLS     r0,r0,#30
        0x080014e0:    d5f6        ..      BPL      0x80014d0 ; HAL_RCC_OscConfig + 536
        0x080014e2:    e00c        ..      B        0x80014fe ; HAL_RCC_OscConfig + 582
        0x080014e4:    f7fff81a    ....    BL       HAL_GetTick ; 0x800051c
        0x080014e8:    4682        .F      MOV      r10,r0
        0x080014ea:    e005        ..      B        0x80014f8 ; HAL_RCC_OscConfig + 576
        0x080014ec:    f7fff816    ....    BL       HAL_GetTick ; 0x800051c
        0x080014f0:    eba0010a    ....    SUB      r1,r0,r10
        0x080014f4:    4559        YE      CMP      r1,r11
        0x080014f6:    d84c        L.      BHI      0x8001592 ; HAL_RCC_OscConfig + 730
        0x080014f8:    6a28        (j      LDR      r0,[r5,#0x20]
        0x080014fa:    0780        ..      LSLS     r0,r0,#30
        0x080014fc:    d4f6        ..      BMI      0x80014ec ; HAL_RCC_OscConfig + 564
        0x080014fe:    b11f        ..      CBZ      r7,0x8001508 ; HAL_RCC_OscConfig + 592
        0x08001500:    69e8        .i      LDR      r0,[r5,#0x1c]
        0x08001502:    f0205080     ..P    BIC      r0,r0,#0x10000000
        0x08001506:    61e8        .a      STR      r0,[r5,#0x1c]
        0x08001508:    69e0        .i      LDR      r0,[r4,#0x1c]
        0x0800150a:    b388        ..      CBZ      r0,0x8001570 ; HAL_RCC_OscConfig + 696
        0x0800150c:    6869        ih      LDR      r1,[r5,#4]
        0x0800150e:    f3c10181    ....    UBFX     r1,r1,#2,#2
        0x08001512:    2902        .)      CMP      r1,#2
        0x08001514:    d044        D.      BEQ      0x80015a0 ; HAL_RCC_OscConfig + 744
        0x08001516:    2802        .(      CMP      r0,#2
        0x08001518:    f8c68060    ..`.    STR      r8,[r6,#0x60]
        0x0800151c:    d004        ..      BEQ      0x8001528 ; HAL_RCC_OscConfig + 624
        0x0800151e:    f7fefffd    ....    BL       HAL_GetTick ; 0x800051c
        0x08001522:    4604        .F      MOV      r4,r0
        0x08001524:    e038        8.      B        0x8001598 ; HAL_RCC_OscConfig + 736
        0x08001526:    e034        4.      B        0x8001592 ; HAL_RCC_OscConfig + 730
        0x08001528:    f7fefff8    ....    BL       HAL_GetTick ; 0x800051c
        0x0800152c:    4607        .F      MOV      r7,r0
        0x0800152e:    e004        ..      B        0x800153a ; HAL_RCC_OscConfig + 642
        0x08001530:    f7fefff4    ....    BL       HAL_GetTick ; 0x800051c
        0x08001534:    1bc0        ..      SUBS     r0,r0,r7
        0x08001536:    2802        .(      CMP      r0,#2
        0x08001538:    d82b        +.      BHI      0x8001592 ; HAL_RCC_OscConfig + 730
        0x0800153a:    6828        (h      LDR      r0,[r5,#0]
        0x0800153c:    0180        ..      LSLS     r0,r0,#6
        0x0800153e:    d4f7        ..      BMI      0x8001530 ; HAL_RCC_OscConfig + 632
        0x08001540:    6a20         j      LDR      r0,[r4,#0x20]
        0x08001542:    f5b03f80    ...?    CMP      r0,#0x10000
        0x08001546:    d105        ..      BNE      0x8001554 ; HAL_RCC_OscConfig + 668
        0x08001548:    6868        hh      LDR      r0,[r5,#4]
        0x0800154a:    68a1        .h      LDR      r1,[r4,#8]
        0x0800154c:    f4203000     ..0    BIC      r0,r0,#0x20000
        0x08001550:    4308        .C      ORRS     r0,r0,r1
        0x08001552:    6068        h`      STR      r0,[r5,#4]
        0x08001554:    e9d40108    ....    LDRD     r0,r1,[r4,#0x20]
        0x08001558:    4308        .C      ORRS     r0,r0,r1
        0x0800155a:    6869        ih      LDR      r1,[r5,#4]
        0x0800155c:    f4211174    !.t.    BIC      r1,r1,#0x3d0000
        0x08001560:    4308        .C      ORRS     r0,r0,r1
        0x08001562:    6068        h`      STR      r0,[r5,#4]
        0x08001564:    f8c69060    ..`.    STR      r9,[r6,#0x60]
        0x08001568:    f7feffd8    ....    BL       HAL_GetTick ; 0x800051c
        0x0800156c:    4604        .F      MOV      r4,r0
        0x0800156e:    e006        ..      B        0x800157e ; HAL_RCC_OscConfig + 710
        0x08001570:    e025        %.      B        0x80015be ; HAL_RCC_OscConfig + 774
        0x08001572:    bf00        ..      NOP      
        0x08001574:    f7feffd2    ....    BL       HAL_GetTick ; 0x800051c
        0x08001578:    1b00        ..      SUBS     r0,r0,r4
        0x0800157a:    2802        .(      CMP      r0,#2
        0x0800157c:    d809        ..      BHI      0x8001592 ; HAL_RCC_OscConfig + 730
        0x0800157e:    6828        (h      LDR      r0,[r5,#0]
        0x08001580:    0180        ..      LSLS     r0,r0,#6
        0x08001582:    d5f7        ..      BPL      0x8001574 ; HAL_RCC_OscConfig + 700
        0x08001584:    e01b        ..      B        0x80015be ; HAL_RCC_OscConfig + 774
        0x08001586:    bf00        ..      NOP      
        0x08001588:    f7feffc8    ....    BL       HAL_GetTick ; 0x800051c
        0x0800158c:    1b00        ..      SUBS     r0,r0,r4
        0x0800158e:    2802        .(      CMP      r0,#2
        0x08001590:    d902        ..      BLS      0x8001598 ; HAL_RCC_OscConfig + 736
        0x08001592:    2003        .       MOVS     r0,#3
        0x08001594:    e8bd8ff8    ....    POP      {r3-r11,pc}
        0x08001598:    6828        (h      LDR      r0,[r5,#0]
        0x0800159a:    0180        ..      LSLS     r0,r0,#6
        0x0800159c:    d4f4        ..      BMI      0x8001588 ; HAL_RCC_OscConfig + 720
        0x0800159e:    e00e        ..      B        0x80015be ; HAL_RCC_OscConfig + 774
        0x080015a0:    2801        .(      CMP      r0,#1
        0x080015a2:    d0f7        ..      BEQ      0x8001594 ; HAL_RCC_OscConfig + 732
        0x080015a4:    6868        hh      LDR      r0,[r5,#4]
        0x080015a6:    6a22        "j      LDR      r2,[r4,#0x20]
        0x080015a8:    f4003180    ...1    AND      r1,r0,#0x10000
        0x080015ac:    4291        .B      CMP      r1,r2
        0x080015ae:    d104        ..      BNE      0x80015ba ; HAL_RCC_OscConfig + 770
        0x080015b0:    6a61        aj      LDR      r1,[r4,#0x24]
        0x080015b2:    f4001070    ..p.    AND      r0,r0,#0x3c0000
        0x080015b6:    4288        .B      CMP      r0,r1
        0x080015b8:    d001        ..      BEQ      0x80015be ; HAL_RCC_OscConfig + 774
        0x080015ba:    2001        .       MOVS     r0,#1
        0x080015bc:    e7ea        ..      B        0x8001594 ; HAL_RCC_OscConfig + 732
        0x080015be:    2000        .       MOVS     r0,#0
        0x080015c0:    e7e8        ..      B        0x8001594 ; HAL_RCC_OscConfig + 732
    $d
        0x080015c2:    0000        ..      DCW    0
        0x080015c4:    40021000    ...@    DCD    1073876992
        0x080015c8:    42420000    ..BB    DCD    1111621632
        0x080015cc:    42420480    ..BB    DCD    1111622784
        0x080015d0:    20000074    t..     DCD    536871028
        0x080015d4:    40007000    .p.@    DCD    1073770496
    $t
    i.HAL_SYSTICK_Config
    HAL_SYSTICK_Config
        0x080015d8:    b510        ..      PUSH     {r4,lr}
        0x080015da:    1e40        @.      SUBS     r0,r0,#1
        0x080015dc:    f1b07f80    ....    CMP      r0,#0x1000000
        0x080015e0:    d301        ..      BCC      0x80015e6 ; HAL_SYSTICK_Config + 14
        0x080015e2:    2001        .       MOVS     r0,#1
        0x080015e4:    bd10        ..      POP      {r4,pc}
        0x080015e6:    f04f24e0    O..$    MOV      r4,#0xe000e000
        0x080015ea:    6160        `a      STR      r0,[r4,#0x14]
        0x080015ec:    210f        .!      MOVS     r1,#0xf
        0x080015ee:    1760        `.      ASRS     r0,r4,#29
        0x080015f0:    f002f8e6    ....    BL       __NVIC_SetPriority ; 0x80037c0
        0x080015f4:    2000        .       MOVS     r0,#0
        0x080015f6:    61a0        .a      STR      r0,[r4,#0x18]
        0x080015f8:    2007        .       MOVS     r0,#7
        0x080015fa:    6120         a      STR      r0,[r4,#0x10]
        0x080015fc:    2000        .       MOVS     r0,#0
        0x080015fe:    bd10        ..      POP      {r4,pc}
    i.HAL_UART_Init
    HAL_UART_Init
        0x08001600:    b570        p.      PUSH     {r4-r6,lr}
        0x08001602:    0004        ..      MOVS     r4,r0
        0x08001604:    d004        ..      BEQ      0x8001610 ; HAL_UART_Init + 16
        0x08001606:    f894003d    ..=.    LDRB     r0,[r4,#0x3d]
        0x0800160a:    2500        .%      MOVS     r5,#0
        0x0800160c:    b110        ..      CBZ      r0,0x8001614 ; HAL_UART_Init + 20
        0x0800160e:    e006        ..      B        0x800161e ; HAL_UART_Init + 30
        0x08001610:    2001        .       MOVS     r0,#1
        0x08001612:    bd70        p.      POP      {r4-r6,pc}
        0x08001614:    f884503c    ..<P    STRB     r5,[r4,#0x3c]
        0x08001618:    4620         F      MOV      r0,r4
        0x0800161a:    f000f823    ..#.    BL       HAL_UART_MspInit ; 0x8001664
        0x0800161e:    2024        $       MOVS     r0,#0x24
        0x08001620:    f884003d    ..=.    STRB     r0,[r4,#0x3d]
        0x08001624:    6820         h      LDR      r0,[r4,#0]
        0x08001626:    68c1        .h      LDR      r1,[r0,#0xc]
        0x08001628:    f4215100    !..Q    BIC      r1,r1,#0x2000
        0x0800162c:    60c1        .`      STR      r1,[r0,#0xc]
        0x0800162e:    4620         F      MOV      r0,r4
        0x08001630:    f000fcbe    ....    BL       UART_SetConfig ; 0x8001fb0
        0x08001634:    6820         h      LDR      r0,[r4,#0]
        0x08001636:    6901        .i      LDR      r1,[r0,#0x10]
        0x08001638:    f4214190    !..A    BIC      r1,r1,#0x4800
        0x0800163c:    6101        .a      STR      r1,[r0,#0x10]
        0x0800163e:    6820         h      LDR      r0,[r4,#0]
        0x08001640:    6941        Ai      LDR      r1,[r0,#0x14]
        0x08001642:    f021012a    !.*.    BIC      r1,r1,#0x2a
        0x08001646:    6141        Aa      STR      r1,[r0,#0x14]
        0x08001648:    6820         h      LDR      r0,[r4,#0]
        0x0800164a:    68c1        .h      LDR      r1,[r0,#0xc]
        0x0800164c:    f4415100    A..Q    ORR      r1,r1,#0x2000
        0x08001650:    60c1        .`      STR      r1,[r0,#0xc]
        0x08001652:    6425        %d      STR      r5,[r4,#0x40]
        0x08001654:    2020                MOVS     r0,#0x20
        0x08001656:    f884003d    ..=.    STRB     r0,[r4,#0x3d]
        0x0800165a:    f884003e    ..>.    STRB     r0,[r4,#0x3e]
        0x0800165e:    2000        .       MOVS     r0,#0
        0x08001660:    bd70        p.      POP      {r4-r6,pc}
        0x08001662:    0000        ..      MOVS     r0,r0
    i.HAL_UART_MspInit
    HAL_UART_MspInit
        0x08001664:    b5f0        ..      PUSH     {r4-r7,lr}
        0x08001666:    b085        ..      SUB      sp,sp,#0x14
        0x08001668:    2400        .$      MOVS     r4,#0
        0x0800166a:    9400        ..      STR      r4,[sp,#0]
        0x0800166c:    9401        ..      STR      r4,[sp,#4]
        0x0800166e:    9402        ..      STR      r4,[sp,#8]
        0x08001670:    9403        ..      STR      r4,[sp,#0xc]
        0x08001672:    6803        .h      LDR      r3,[r0,#0]
        0x08001674:    4f42        BO      LDR      r7,[pc,#264] ; [0x8001780] = 0x40013800
        0x08001676:    2002        .       MOVS     r0,#2
        0x08001678:    4942        BI      LDR      r1,[pc,#264] ; [0x8001784] = 0x40021000
        0x0800167a:    2203        ."      MOVS     r2,#3
        0x0800167c:    4d42        BM      LDR      r5,[pc,#264] ; [0x8001788] = 0x40010800
        0x0800167e:    0246        F.      LSLS     r6,r0,#9
        0x08001680:    42bb        .B      CMP      r3,r7
        0x08001682:    d125        %.      BNE      0x80016d0 ; HAL_UART_MspInit + 108
        0x08001684:    698b        .i      LDR      r3,[r1,#0x18]
        0x08001686:    f4434380    C..C    ORR      r3,r3,#0x4000
        0x0800168a:    618b        .a      STR      r3,[r1,#0x18]
        0x0800168c:    698b        .i      LDR      r3,[r1,#0x18]
        0x0800168e:    f4034380    ...C    AND      r3,r3,#0x4000
        0x08001692:    9304        ..      STR      r3,[sp,#0x10]
        0x08001694:    698b        .i      LDR      r3,[r1,#0x18]
        0x08001696:    f0430304    C...    ORR      r3,r3,#4
        0x0800169a:    618b        .a      STR      r3,[r1,#0x18]
        0x0800169c:    6989        .i      LDR      r1,[r1,#0x18]
        0x0800169e:    9203        ..      STR      r2,[sp,#0xc]
        0x080016a0:    f0010104    ....    AND      r1,r1,#4
        0x080016a4:    9104        ..      STR      r1,[sp,#0x10]
        0x080016a6:    0201        ..      LSLS     r1,r0,#8
        0x080016a8:    e9cd1000    ....    STRD     r1,r0,[sp,#0]
        0x080016ac:    4669        iF      MOV      r1,sp
        0x080016ae:    4628        (F      MOV      r0,r5
        0x080016b0:    f7fefe44    ..D.    BL       HAL_GPIO_Init ; 0x800033c
        0x080016b4:    e9cd6400    ...d    STRD     r6,r4,[sp,#0]
        0x080016b8:    4669        iF      MOV      r1,sp
        0x080016ba:    4628        (F      MOV      r0,r5
        0x080016bc:    9402        ..      STR      r4,[sp,#8]
        0x080016be:    f7fefe3d    ..=.    BL       HAL_GPIO_Init ; 0x800033c
        0x080016c2:    2200        ."      MOVS     r2,#0
        0x080016c4:    4611        .F      MOV      r1,r2
        0x080016c6:    2025        %       MOVS     r0,#0x25
        0x080016c8:    f7feff94    ....    BL       HAL_NVIC_SetPriority ; 0x80005f4
        0x080016cc:    2025        %       MOVS     r0,#0x25
        0x080016ce:    e028        (.      B        0x8001722 ; HAL_UART_MspInit + 190
        0x080016d0:    4f2e        .O      LDR      r7,[pc,#184] ; [0x800178c] = 0x40004400
        0x080016d2:    42bb        .B      CMP      r3,r7
        0x080016d4:    d129        ).      BNE      0x800172a ; HAL_UART_MspInit + 198
        0x080016d6:    69cb        .i      LDR      r3,[r1,#0x1c]
        0x080016d8:    f4433300    C..3    ORR      r3,r3,#0x20000
        0x080016dc:    61cb        .a      STR      r3,[r1,#0x1c]
        0x080016de:    69cb        .i      LDR      r3,[r1,#0x1c]
        0x080016e0:    f4033300    ...3    AND      r3,r3,#0x20000
        0x080016e4:    9304        ..      STR      r3,[sp,#0x10]
        0x080016e6:    698b        .i      LDR      r3,[r1,#0x18]
        0x080016e8:    f0430304    C...    ORR      r3,r3,#4
        0x080016ec:    618b        .a      STR      r3,[r1,#0x18]
        0x080016ee:    6989        .i      LDR      r1,[r1,#0x18]
        0x080016f0:    9203        ..      STR      r2,[sp,#0xc]
        0x080016f2:    f0010104    ....    AND      r1,r1,#4
        0x080016f6:    9104        ..      STR      r1,[sp,#0x10]
        0x080016f8:    2104        .!      MOVS     r1,#4
        0x080016fa:    e9cd1000    ....    STRD     r1,r0,[sp,#0]
        0x080016fe:    4669        iF      MOV      r1,sp
        0x08001700:    4628        (F      MOV      r0,r5
        0x08001702:    f7fefe1b    ....    BL       HAL_GPIO_Init ; 0x800033c
        0x08001706:    2008        .       MOVS     r0,#8
        0x08001708:    e9cd0400    ....    STRD     r0,r4,[sp,#0]
        0x0800170c:    4669        iF      MOV      r1,sp
        0x0800170e:    4628        (F      MOV      r0,r5
        0x08001710:    9402        ..      STR      r4,[sp,#8]
        0x08001712:    f7fefe13    ....    BL       HAL_GPIO_Init ; 0x800033c
        0x08001716:    2200        ."      MOVS     r2,#0
        0x08001718:    4611        .F      MOV      r1,r2
        0x0800171a:    2026        &       MOVS     r0,#0x26
        0x0800171c:    f7feff6a    ..j.    BL       HAL_NVIC_SetPriority ; 0x80005f4
        0x08001720:    2026        &       MOVS     r0,#0x26
        0x08001722:    f7feff59    ..Y.    BL       HAL_NVIC_EnableIRQ ; 0x80005d8
        0x08001726:    b005        ..      ADD      sp,sp,#0x14
        0x08001728:    bdf0        ..      POP      {r4-r7,pc}
        0x0800172a:    4d19        .M      LDR      r5,[pc,#100] ; [0x8001790] = 0x40004800
        0x0800172c:    42ab        .B      CMP      r3,r5
        0x0800172e:    d1fa        ..      BNE      0x8001726 ; HAL_UART_MspInit + 194
        0x08001730:    69cb        .i      LDR      r3,[r1,#0x1c]
        0x08001732:    f4432380    C..#    ORR      r3,r3,#0x40000
        0x08001736:    61cb        .a      STR      r3,[r1,#0x1c]
        0x08001738:    69cb        .i      LDR      r3,[r1,#0x1c]
        0x0800173a:    f4032380    ...#    AND      r3,r3,#0x40000
        0x0800173e:    9304        ..      STR      r3,[sp,#0x10]
        0x08001740:    698b        .i      LDR      r3,[r1,#0x18]
        0x08001742:    f0430308    C...    ORR      r3,r3,#8
        0x08001746:    618b        .a      STR      r3,[r1,#0x18]
        0x08001748:    6989        .i      LDR      r1,[r1,#0x18]
        0x0800174a:    4d12        .M      LDR      r5,[pc,#72] ; [0x8001794] = 0x40010c00
        0x0800174c:    f0010108    ....    AND      r1,r1,#8
        0x08001750:    e9cd2103    ...!    STRD     r2,r1,[sp,#0xc]
        0x08001754:    e9cd6000    ...`    STRD     r6,r0,[sp,#0]
        0x08001758:    4669        iF      MOV      r1,sp
        0x0800175a:    4628        (F      MOV      r0,r5
        0x0800175c:    f7fefdee    ....    BL       HAL_GPIO_Init ; 0x800033c
        0x08001760:    14e8        ..      ASRS     r0,r5,#19
        0x08001762:    e9cd0400    ....    STRD     r0,r4,[sp,#0]
        0x08001766:    4669        iF      MOV      r1,sp
        0x08001768:    4628        (F      MOV      r0,r5
        0x0800176a:    9402        ..      STR      r4,[sp,#8]
        0x0800176c:    f7fefde6    ....    BL       HAL_GPIO_Init ; 0x800033c
        0x08001770:    2200        ."      MOVS     r2,#0
        0x08001772:    4611        .F      MOV      r1,r2
        0x08001774:    2027        '       MOVS     r0,#0x27
        0x08001776:    f7feff3d    ..=.    BL       HAL_NVIC_SetPriority ; 0x80005f4
        0x0800177a:    2027        '       MOVS     r0,#0x27
        0x0800177c:    e7d1        ..      B        0x8001722 ; HAL_UART_MspInit + 190
    $d
        0x0800177e:    0000        ..      DCW    0
        0x08001780:    40013800    .8.@    DCD    1073821696
        0x08001784:    40021000    ...@    DCD    1073876992
        0x08001788:    40010800    ...@    DCD    1073809408
        0x0800178c:    40004400    .D.@    DCD    1073759232
        0x08001790:    40004800    .H.@    DCD    1073760256
        0x08001794:    40010c00    ...@    DCD    1073810432
    $t
    i.HardFault_Handler
    HardFault_Handler
        0x08001798:    e7fe        ..      B        HardFault_Handler ; 0x8001798
        0x0800179a:    0000        ..      MOVS     r0,r0
    i.IntToUnicode
    IntToUnicode
        0x0800179c:    b5f0        ..      PUSH     {r4-r7,lr}
        0x0800179e:    2300        .#      MOVS     r3,#0
        0x080017a0:    240a        .$      MOVS     r4,#0xa
        0x080017a2:    2530        0%      MOVS     r5,#0x30
        0x080017a4:    2637        7&      MOVS     r6,#0x37
        0x080017a6:    461f        .F      MOV      r7,r3
        0x080017a8:    e011        ..      B        0x80017ce ; IntToUnicode + 50
        0x080017aa:    bf00        ..      NOP      
        0x080017ac:    ebb47f10    ....    CMP      r4,r0,LSR #28
        0x080017b0:    d902        ..      BLS      0x80017b8 ; IntToUnicode + 28
        0x080017b2:    eb057c10    ...|    ADD      r12,r5,r0,LSR #28
        0x080017b6:    e001        ..      B        0x80017bc ; IntToUnicode + 32
        0x080017b8:    eb067c10    ...|    ADD      r12,r6,r0,LSR #28
        0x080017bc:    f801c013    ....    STRB     r12,[r1,r3,LSL #1]
        0x080017c0:    eb010c43    ..C.    ADD      r12,r1,r3,LSL #1
        0x080017c4:    0100        ..      LSLS     r0,r0,#4
        0x080017c6:    1c5b        [.      ADDS     r3,r3,#1
        0x080017c8:    f88c7001    ...p    STRB     r7,[r12,#1]
        0x080017cc:    b2db        ..      UXTB     r3,r3
        0x080017ce:    4293        .B      CMP      r3,r2
        0x080017d0:    d3ec        ..      BCC      0x80017ac ; IntToUnicode + 16
        0x080017d2:    bdf0        ..      POP      {r4-r7,pc}
    i.MIDI_ProcessUARTData
    MIDI_ProcessUARTData
        0x080017d4:    e92d41f0    -..A    PUSH     {r4-r8,lr}
        0x080017d8:    f000fb5a    ..Z.    BL       UART1_Available ; 0x8001e90
        0x080017dc:    2600        .&      MOVS     r6,#0
        0x080017de:    b3a8        ..      CBZ      r0,0x800184c ; MIDI_ProcessUARTData + 120
        0x080017e0:    f000fb72    ..r.    BL       UART1_Get ; 0x8001ec8
        0x080017e4:    4601        .F      MOV      r1,r0
        0x080017e6:    4835        5H      LDR      r0,[pc,#212] ; [0x80018bc] = 0x20000005
        0x080017e8:    2700        .'      MOVS     r7,#0
        0x080017ea:    1e84        ..      SUBS     r4,r0,#2
        0x080017ec:    1e42        B.      SUBS     r2,r0,#1
        0x080017ee:    231f        .#      MOVS     r3,#0x1f
        0x080017f0:    ebb30fd1    ....    CMP      r3,r1,LSR #3
        0x080017f4:    d105        ..      BNE      0x8001802 ; MIDI_ProcessUARTData + 46
        0x080017f6:    2300        .#      MOVS     r3,#0
        0x080017f8:    461a        .F      MOV      r2,r3
        0x080017fa:    4638        8F      MOV      r0,r7
        0x080017fc:    f000f8c0    ....    BL       MIDI_addUSBEventPacket ; 0x8001980
        0x08001800:    e049        I.      B        0x8001896 ; MIDI_ProcessUARTData + 194
        0x08001802:    060b        ..      LSLS     r3,r1,#24
        0x08001804:    d500        ..      BPL      0x8001808 ; MIDI_ProcessUARTData + 52
        0x08001806:    7026        &p      STRB     r6,[r4,#0]
        0x08001808:    7823        #x      LDRB     r3,[r4,#0]
        0x0800180a:    2501        .%      MOVS     r5,#1
        0x0800180c:    54c1        .T      STRB     r1,[r0,r3]
        0x0800180e:    7823        #x      LDRB     r3,[r4,#0]
        0x08001810:    b123        #.      CBZ      r3,0x800181c ; MIDI_ProcessUARTData + 72
        0x08001812:    2b01        .+      CMP      r3,#1
        0x08001814:    d01b        ..      BEQ      0x800184e ; MIDI_ProcessUARTData + 122
        0x08001816:    2b02        .+      CMP      r3,#2
        0x08001818:    d029        ).      BEQ      0x800186e ; MIDI_ProcessUARTData + 154
        0x0800181a:    e03c        <.      B        0x8001896 ; MIDI_ProcessUARTData + 194
        0x0800181c:    0908        ..      LSRS     r0,r1,#4
        0x0800181e:    7010        .p      STRB     r0,[r2,#0]
        0x08001820:    2808        .(      CMP      r0,#8
        0x08001822:    d037        7.      BEQ      0x8001894 ; MIDI_ProcessUARTData + 192
        0x08001824:    2809        .(      CMP      r0,#9
        0x08001826:    d035        5.      BEQ      0x8001894 ; MIDI_ProcessUARTData + 192
        0x08001828:    280a        .(      CMP      r0,#0xa
        0x0800182a:    d033        3.      BEQ      0x8001894 ; MIDI_ProcessUARTData + 192
        0x0800182c:    280b        .(      CMP      r0,#0xb
        0x0800182e:    d031        1.      BEQ      0x8001894 ; MIDI_ProcessUARTData + 192
        0x08001830:    280c        .(      CMP      r0,#0xc
        0x08001832:    d02f        /.      BEQ      0x8001894 ; MIDI_ProcessUARTData + 192
        0x08001834:    280d        .(      CMP      r0,#0xd
        0x08001836:    d02d        -.      BEQ      0x8001894 ; MIDI_ProcessUARTData + 192
        0x08001838:    280e        .(      CMP      r0,#0xe
        0x0800183a:    d02b        +.      BEQ      0x8001894 ; MIDI_ProcessUARTData + 192
        0x0800183c:    29f3        .)      CMP      r1,#0xf3
        0x0800183e:    d003        ..      BEQ      0x8001848 ; MIDI_ProcessUARTData + 116
        0x08001840:    29f2        .)      CMP      r1,#0xf2
        0x08001842:    d001        ..      BEQ      0x8001848 ; MIDI_ProcessUARTData + 116
        0x08001844:    29f1        .)      CMP      r1,#0xf1
        0x08001846:    d126        &.      BNE      0x8001896 ; MIDI_ProcessUARTData + 194
        0x08001848:    7011        .p      STRB     r1,[r2,#0]
        0x0800184a:    e023        #.      B        0x8001894 ; MIDI_ProcessUARTData + 192
        0x0800184c:    e023        #.      B        0x8001896 ; MIDI_ProcessUARTData + 194
        0x0800184e:    7811        .x      LDRB     r1,[r2,#0]
        0x08001850:    290d        .)      CMP      r1,#0xd
        0x08001852:    d008        ..      BEQ      0x8001866 ; MIDI_ProcessUARTData + 146
        0x08001854:    290c        .)      CMP      r1,#0xc
        0x08001856:    d006        ..      BEQ      0x8001866 ; MIDI_ProcessUARTData + 146
        0x08001858:    29f1        .)      CMP      r1,#0xf1
        0x0800185a:    d004        ..      BEQ      0x8001866 ; MIDI_ProcessUARTData + 146
        0x0800185c:    29f3        .)      CMP      r1,#0xf3
        0x0800185e:    d002        ..      BEQ      0x8001866 ; MIDI_ProcessUARTData + 146
        0x08001860:    2002        .       MOVS     r0,#2
        0x08001862:    7020         p      STRB     r0,[r4,#0]
        0x08001864:    e017        ..      B        0x8001896 ; MIDI_ProcessUARTData + 194
        0x08001866:    7842        Bx      LDRB     r2,[r0,#1]
        0x08001868:    7801        .x      LDRB     r1,[r0,#0]
        0x0800186a:    2300        .#      MOVS     r3,#0
        0x0800186c:    e00f        ..      B        0x800188e ; MIDI_ProcessUARTData + 186
        0x0800186e:    7811        .x      LDRB     r1,[r2,#0]
        0x08001870:    2909        .)      CMP      r1,#9
        0x08001872:    d009        ..      BEQ      0x8001888 ; MIDI_ProcessUARTData + 180
        0x08001874:    2908        .)      CMP      r1,#8
        0x08001876:    d007        ..      BEQ      0x8001888 ; MIDI_ProcessUARTData + 180
        0x08001878:    290a        .)      CMP      r1,#0xa
        0x0800187a:    d005        ..      BEQ      0x8001888 ; MIDI_ProcessUARTData + 180
        0x0800187c:    290b        .)      CMP      r1,#0xb
        0x0800187e:    d003        ..      BEQ      0x8001888 ; MIDI_ProcessUARTData + 180
        0x08001880:    29f2        .)      CMP      r1,#0xf2
        0x08001882:    d001        ..      BEQ      0x8001888 ; MIDI_ProcessUARTData + 180
        0x08001884:    290e        .)      CMP      r1,#0xe
        0x08001886:    d105        ..      BNE      0x8001894 ; MIDI_ProcessUARTData + 192
        0x08001888:    7883        .x      LDRB     r3,[r0,#2]
        0x0800188a:    7842        Bx      LDRB     r2,[r0,#1]
        0x0800188c:    7801        .x      LDRB     r1,[r0,#0]
        0x0800188e:    4638        8F      MOV      r0,r7
        0x08001890:    f000f876    ..v.    BL       MIDI_addUSBEventPacket ; 0x8001980
        0x08001894:    7025        %p      STRB     r5,[r4,#0]
        0x08001896:    4c09        .L      LDR      r4,[pc,#36] ; [0x80018bc] = 0x20000005
        0x08001898:    1f64        d.      SUBS     r4,r4,#5
        0x0800189a:    7820         x      LDRB     r0,[r4,#0]
        0x0800189c:    2800        .(      CMP      r0,#0
        0x0800189e:    d00a        ..      BEQ      0x80018b6 ; MIDI_ProcessUARTData + 226
        0x080018a0:    4807        .H      LDR      r0,[pc,#28] ; [0x80018c0] = 0x2000073c
        0x080018a2:    f000ffb5    ....    BL       USBD_MIDI_GetState ; 0x8002810
        0x080018a6:    2800        .(      CMP      r0,#0
        0x080018a8:    d105        ..      BNE      0x80018b6 ; MIDI_ProcessUARTData + 226
        0x080018aa:    7822        "x      LDRB     r2,[r4,#0]
        0x080018ac:    4905        .I      LDR      r1,[pc,#20] ; [0x80018c4] = 0x20000130
        0x080018ae:    4804        .H      LDR      r0,[pc,#16] ; [0x80018c0] = 0x2000073c
        0x080018b0:    f000fff5    ....    BL       USBD_MIDI_SendPackets ; 0x800289e
        0x080018b4:    7026        &p      STRB     r6,[r4,#0]
        0x080018b6:    e8bd81f0    ....    POP      {r4-r8,pc}
    $d
        0x080018ba:    0000        ..      DCW    0
        0x080018bc:    20000005    ...     DCD    536870917
        0x080018c0:    2000073c    <..     DCD    536872764
        0x080018c4:    20000130    0..     DCD    536871216
    $t
    i.MIDI_ProcessUSBData
    MIDI_ProcessUSBData
        0x080018c8:    e92d47f0    -..G    PUSH     {r4-r10,lr}
        0x080018cc:    4f27        'O      LDR      r7,[pc,#156] ; [0x800196c] = 0x20000000
        0x080018ce:    78b9        .x      LDRB     r1,[r7,#2]
        0x080018d0:    7878        xx      LDRB     r0,[r7,#1]
        0x080018d2:    4281        .B      CMP      r1,r0
        0x080018d4:    d048        H.      BEQ      0x8001968 ; MIDI_ProcessUSBData + 160
        0x080018d6:    4a26        &J      LDR      r2,[pc,#152] ; [0x8001970] = 0x20000170
        0x080018d8:    f1070508    ....    ADD      r5,r7,#8
        0x080018dc:    5c50        P\      LDRB     r0,[r2,r1]
        0x080018de:    4411        .D      ADD      r1,r1,r2
        0x080018e0:    0900        ..      LSRS     r0,r0,#4
        0x080018e2:    784c        Lx      LDRB     r4,[r1,#1]
        0x080018e4:    d004        ..      BEQ      0x80018f0 ; MIDI_ProcessUSBData + 40
        0x080018e6:    2801        .(      CMP      r0,#1
        0x080018e8:    d004        ..      BEQ      0x80018f4 ; MIDI_ProcessUSBData + 44
        0x080018ea:    2802        .(      CMP      r0,#2
        0x080018ec:    d005        ..      BEQ      0x80018fa ; MIDI_ProcessUSBData + 50
        0x080018ee:    e038        8.      B        0x8001962 ; MIDI_ProcessUSBData + 154
        0x080018f0:    4e20         N      LDR      r6,[pc,#128] ; [0x8001974] = 0x8001ee1
        0x080018f2:    e004        ..      B        0x80018fe ; MIDI_ProcessUSBData + 54
        0x080018f4:    4e20         N      LDR      r6,[pc,#128] ; [0x8001978] = 0x8001f2d
        0x080018f6:    1c6d        m.      ADDS     r5,r5,#1
        0x080018f8:    e001        ..      B        0x80018fe ; MIDI_ProcessUSBData + 54
        0x080018fa:    4e20         N      LDR      r6,[pc,#128] ; [0x800197c] = 0x8001f79
        0x080018fc:    1cad        ..      ADDS     r5,r5,#2
        0x080018fe:    f8919002    ....    LDRB     r9,[r1,#2]
        0x08001902:    f8918003    ....    LDRB     r8,[r1,#3]
        0x08001906:    0920         .      LSRS     r0,r4,#4
        0x08001908:    211f        .!      MOVS     r1,#0x1f
        0x0800190a:    ebb10fd4    ....    CMP      r1,r4,LSR #3
        0x0800190e:    d101        ..      BNE      0x8001914 ; MIDI_ProcessUSBData + 76
        0x08001910:    4620         F      MOV      r0,r4
        0x08001912:    e025        %.      B        0x8001960 ; MIDI_ProcessUSBData + 152
        0x08001914:    280d        .(      CMP      r0,#0xd
        0x08001916:    d012        ..      BEQ      0x800193e ; MIDI_ProcessUSBData + 118
        0x08001918:    280c        .(      CMP      r0,#0xc
        0x0800191a:    d010        ..      BEQ      0x800193e ; MIDI_ProcessUSBData + 118
        0x0800191c:    2cf1        .,      CMP      r4,#0xf1
        0x0800191e:    d00e        ..      BEQ      0x800193e ; MIDI_ProcessUSBData + 118
        0x08001920:    2cf3        .,      CMP      r4,#0xf3
        0x08001922:    d00c        ..      BEQ      0x800193e ; MIDI_ProcessUSBData + 118
        0x08001924:    2809        .(      CMP      r0,#9
        0x08001926:    d012        ..      BEQ      0x800194e ; MIDI_ProcessUSBData + 134
        0x08001928:    2808        .(      CMP      r0,#8
        0x0800192a:    d010        ..      BEQ      0x800194e ; MIDI_ProcessUSBData + 134
        0x0800192c:    280a        .(      CMP      r0,#0xa
        0x0800192e:    d00e        ..      BEQ      0x800194e ; MIDI_ProcessUSBData + 134
        0x08001930:    280b        .(      CMP      r0,#0xb
        0x08001932:    d00c        ..      BEQ      0x800194e ; MIDI_ProcessUSBData + 134
        0x08001934:    2cf2        .,      CMP      r4,#0xf2
        0x08001936:    d00a        ..      BEQ      0x800194e ; MIDI_ProcessUSBData + 134
        0x08001938:    280e        .(      CMP      r0,#0xe
        0x0800193a:    d008        ..      BEQ      0x800194e ; MIDI_ProcessUSBData + 134
        0x0800193c:    e011        ..      B        0x8001962 ; MIDI_ProcessUSBData + 154
        0x0800193e:    7828        (x      LDRB     r0,[r5,#0]
        0x08001940:    42a0        .B      CMP      r0,r4
        0x08001942:    d002        ..      BEQ      0x800194a ; MIDI_ProcessUSBData + 130
        0x08001944:    4620         F      MOV      r0,r4
        0x08001946:    47b0        .G      BLX      r6
        0x08001948:    702c        ,p      STRB     r4,[r5,#0]
        0x0800194a:    4648        HF      MOV      r0,r9
        0x0800194c:    e008        ..      B        0x8001960 ; MIDI_ProcessUSBData + 152
        0x0800194e:    7828        (x      LDRB     r0,[r5,#0]
        0x08001950:    42a0        .B      CMP      r0,r4
        0x08001952:    d002        ..      BEQ      0x800195a ; MIDI_ProcessUSBData + 146
        0x08001954:    4620         F      MOV      r0,r4
        0x08001956:    47b0        .G      BLX      r6
        0x08001958:    702c        ,p      STRB     r4,[r5,#0]
        0x0800195a:    4648        HF      MOV      r0,r9
        0x0800195c:    47b0        .G      BLX      r6
        0x0800195e:    4640        @F      MOV      r0,r8
        0x08001960:    47b0        .G      BLX      r6
        0x08001962:    78b8        .x      LDRB     r0,[r7,#2]
        0x08001964:    1d00        ..      ADDS     r0,r0,#4
        0x08001966:    70b8        .p      STRB     r0,[r7,#2]
        0x08001968:    e8bd87f0    ....    POP      {r4-r10,pc}
    $d
        0x0800196c:    20000000    ...     DCD    536870912
        0x08001970:    20000170    p..     DCD    536871280
        0x08001974:    08001ee1    ....    DCD    134225633
        0x08001978:    08001f2d    -...    DCD    134225709
        0x0800197c:    08001f79    y...    DCD    134225785
    $t
    i.MIDI_addUSBEventPacket
    MIDI_addUSBEventPacket
        0x08001980:    b570        p.      PUSH     {r4-r6,lr}
        0x08001982:    4c12        .L      LDR      r4,[pc,#72] ; [0x80019cc] = 0x20000000
        0x08001984:    0100        ..      LSLS     r0,r0,#4
        0x08001986:    ea401611    @...    ORR      r6,r0,r1,LSR #4
        0x0800198a:    480f        .H      LDR      r0,[pc,#60] ; [0x80019c8] = 0x20000130
        0x0800198c:    7825        %x      LDRB     r5,[r4,#0]
        0x0800198e:    5546        FU      STRB     r6,[r0,r5]
        0x08001990:    1c6d        m.      ADDS     r5,r5,#1
        0x08001992:    b2ed        ..      UXTB     r5,r5
        0x08001994:    5541        AU      STRB     r1,[r0,r5]
        0x08001996:    1c6d        m.      ADDS     r5,r5,#1
        0x08001998:    b2e9        ..      UXTB     r1,r5
        0x0800199a:    5442        BT      STRB     r2,[r0,r1]
        0x0800199c:    1c49        I.      ADDS     r1,r1,#1
        0x0800199e:    b2c9        ..      UXTB     r1,r1
        0x080019a0:    5443        CT      STRB     r3,[r0,r1]
        0x080019a2:    1c49        I.      ADDS     r1,r1,#1
        0x080019a4:    b2c8        ..      UXTB     r0,r1
        0x080019a6:    7020         p      STRB     r0,[r4,#0]
        0x080019a8:    2840        @(      CMP      r0,#0x40
        0x080019aa:    d10b        ..      BNE      0x80019c4 ; MIDI_addUSBEventPacket + 68
        0x080019ac:    4808        .H      LDR      r0,[pc,#32] ; [0x80019d0] = 0x2000073c
        0x080019ae:    f000ff2f    ../.    BL       USBD_MIDI_GetState ; 0x8002810
        0x080019b2:    2800        .(      CMP      r0,#0
        0x080019b4:    d1fa        ..      BNE      0x80019ac ; MIDI_addUSBEventPacket + 44
        0x080019b6:    2240        @"      MOVS     r2,#0x40
        0x080019b8:    4903        .I      LDR      r1,[pc,#12] ; [0x80019c8] = 0x20000130
        0x080019ba:    4805        .H      LDR      r0,[pc,#20] ; [0x80019d0] = 0x2000073c
        0x080019bc:    f000ff6f    ..o.    BL       USBD_MIDI_SendPackets ; 0x800289e
        0x080019c0:    2000        .       MOVS     r0,#0
        0x080019c2:    7020         p      STRB     r0,[r4,#0]
        0x080019c4:    bd70        p.      POP      {r4-r6,pc}
    $d
        0x080019c6:    0000        ..      DCW    0
        0x080019c8:    20000130    0..     DCD    536871216
        0x080019cc:    20000000    ...     DCD    536870912
        0x080019d0:    2000073c    <..     DCD    536872764
    $t
    i.MX_GPIO_Init
    MX_GPIO_Init
        0x080019d4:    480d        .H      LDR      r0,[pc,#52] ; [0x8001a0c] = 0x40021000
        0x080019d6:    b508        ..      PUSH     {r3,lr}
        0x080019d8:    6981        .i      LDR      r1,[r0,#0x18]
        0x080019da:    f0410120    A. .    ORR      r1,r1,#0x20
        0x080019de:    6181        .a      STR      r1,[r0,#0x18]
        0x080019e0:    6981        .i      LDR      r1,[r0,#0x18]
        0x080019e2:    f0010120    .. .    AND      r1,r1,#0x20
        0x080019e6:    9100        ..      STR      r1,[sp,#0]
        0x080019e8:    6981        .i      LDR      r1,[r0,#0x18]
        0x080019ea:    f0410104    A...    ORR      r1,r1,#4
        0x080019ee:    6181        .a      STR      r1,[r0,#0x18]
        0x080019f0:    6981        .i      LDR      r1,[r0,#0x18]
        0x080019f2:    f0010104    ....    AND      r1,r1,#4
        0x080019f6:    9100        ..      STR      r1,[sp,#0]
        0x080019f8:    6981        .i      LDR      r1,[r0,#0x18]
        0x080019fa:    f0410108    A...    ORR      r1,r1,#8
        0x080019fe:    6181        .a      STR      r1,[r0,#0x18]
        0x08001a00:    6980        .i      LDR      r0,[r0,#0x18]
        0x08001a02:    f0000008    ....    AND      r0,r0,#8
        0x08001a06:    9000        ..      STR      r0,[sp,#0]
        0x08001a08:    bd08        ..      POP      {r3,pc}
    $d
        0x08001a0a:    0000        ..      DCW    0
        0x08001a0c:    40021000    ...@    DCD    1073876992
    $t
    i.MX_USART1_UART_Init
    MX_USART1_UART_Init
        0x08001a10:    480c        .H      LDR      r0,[pc,#48] ; [0x8001a44] = 0x20000670
        0x08001a12:    b510        ..      PUSH     {r4,lr}
        0x08001a14:    490a        .I      LDR      r1,[pc,#40] ; [0x8001a40] = 0x40013800
        0x08001a16:    6001        .`      STR      r1,[r0,#0]
        0x08001a18:    f6472112    G..!    MOV      r1,#0x7a12
        0x08001a1c:    6041        A`      STR      r1,[r0,#4]
        0x08001a1e:    2100        .!      MOVS     r1,#0
        0x08001a20:    6081        .`      STR      r1,[r0,#8]
        0x08001a22:    220c        ."      MOVS     r2,#0xc
        0x08001a24:    60c1        .`      STR      r1,[r0,#0xc]
        0x08001a26:    e9c01204    ....    STRD     r1,r2,[r0,#0x10]
        0x08001a2a:    6181        .a      STR      r1,[r0,#0x18]
        0x08001a2c:    61c1        .a      STR      r1,[r0,#0x1c]
        0x08001a2e:    f7fffde7    ....    BL       HAL_UART_Init ; 0x8001600
        0x08001a32:    2800        .(      CMP      r0,#0
        0x08001a34:    d003        ..      BEQ      0x8001a3e ; MX_USART1_UART_Init + 46
        0x08001a36:    e8bd4010    ...@    POP      {r4,lr}
        0x08001a3a:    f7febc7c    ..|.    B        Error_Handler ; 0x8000336
        0x08001a3e:    bd10        ..      POP      {r4,pc}
    $d
        0x08001a40:    40013800    .8.@    DCD    1073821696
        0x08001a44:    20000670    p..     DCD    536872560
    $t
    i.MX_USART2_UART_Init
    MX_USART2_UART_Init
        0x08001a48:    480c        .H      LDR      r0,[pc,#48] ; [0x8001a7c] = 0x200006b4
        0x08001a4a:    b510        ..      PUSH     {r4,lr}
        0x08001a4c:    490a        .I      LDR      r1,[pc,#40] ; [0x8001a78] = 0x40004400
        0x08001a4e:    6001        .`      STR      r1,[r0,#0]
        0x08001a50:    f6472112    G..!    MOV      r1,#0x7a12
        0x08001a54:    6041        A`      STR      r1,[r0,#4]
        0x08001a56:    2100        .!      MOVS     r1,#0
        0x08001a58:    6081        .`      STR      r1,[r0,#8]
        0x08001a5a:    2208        ."      MOVS     r2,#8
        0x08001a5c:    60c1        .`      STR      r1,[r0,#0xc]
        0x08001a5e:    e9c01204    ....    STRD     r1,r2,[r0,#0x10]
        0x08001a62:    6181        .a      STR      r1,[r0,#0x18]
        0x08001a64:    61c1        .a      STR      r1,[r0,#0x1c]
        0x08001a66:    f7fffdcb    ....    BL       HAL_UART_Init ; 0x8001600
        0x08001a6a:    2800        .(      CMP      r0,#0
        0x08001a6c:    d003        ..      BEQ      0x8001a76 ; MX_USART2_UART_Init + 46
        0x08001a6e:    e8bd4010    ...@    POP      {r4,lr}
        0x08001a72:    f7febc60    ..`.    B        Error_Handler ; 0x8000336
        0x08001a76:    bd10        ..      POP      {r4,pc}
    $d
        0x08001a78:    40004400    .D.@    DCD    1073759232
        0x08001a7c:    200006b4    ...     DCD    536872628
    $t
    i.MX_USART3_UART_Init
    MX_USART3_UART_Init
        0x08001a80:    480c        .H      LDR      r0,[pc,#48] ; [0x8001ab4] = 0x200006f8
        0x08001a82:    b510        ..      PUSH     {r4,lr}
        0x08001a84:    490a        .I      LDR      r1,[pc,#40] ; [0x8001ab0] = 0x40004800
        0x08001a86:    6001        .`      STR      r1,[r0,#0]
        0x08001a88:    f6472112    G..!    MOV      r1,#0x7a12
        0x08001a8c:    6041        A`      STR      r1,[r0,#4]
        0x08001a8e:    2100        .!      MOVS     r1,#0
        0x08001a90:    6081        .`      STR      r1,[r0,#8]
        0x08001a92:    2208        ."      MOVS     r2,#8
        0x08001a94:    60c1        .`      STR      r1,[r0,#0xc]
        0x08001a96:    e9c01204    ....    STRD     r1,r2,[r0,#0x10]
        0x08001a9a:    6181        .a      STR      r1,[r0,#0x18]
        0x08001a9c:    61c1        .a      STR      r1,[r0,#0x1c]
        0x08001a9e:    f7fffdaf    ....    BL       HAL_UART_Init ; 0x8001600
        0x08001aa2:    2800        .(      CMP      r0,#0
        0x08001aa4:    d003        ..      BEQ      0x8001aae ; MX_USART3_UART_Init + 46
        0x08001aa6:    e8bd4010    ...@    POP      {r4,lr}
        0x08001aaa:    f7febc44    ..D.    B        Error_Handler ; 0x8000336
        0x08001aae:    bd10        ..      POP      {r4,pc}
    $d
        0x08001ab0:    40004800    .H.@    DCD    1073760256
        0x08001ab4:    200006f8    ...     DCD    536872696
    $t
    i.MX_USB_DEVICE_Init
    MX_USB_DEVICE_Init
        0x08001ab8:    b510        ..      PUSH     {r4,lr}
        0x08001aba:    2200        ."      MOVS     r2,#0
        0x08001abc:    490b        .I      LDR      r1,[pc,#44] ; [0x8001aec] = 0x20000018
        0x08001abe:    480c        .H      LDR      r0,[pc,#48] ; [0x8001af0] = 0x2000073c
        0x08001ac0:    f000fca2    ....    BL       USBD_Init ; 0x8002408
        0x08001ac4:    b108        ..      CBZ      r0,0x8001aca ; MX_USB_DEVICE_Init + 18
        0x08001ac6:    f7fefc36    ..6.    BL       Error_Handler ; 0x8000336
        0x08001aca:    490a        .I      LDR      r1,[pc,#40] ; [0x8001af4] = 0x20000078
        0x08001acc:    4808        .H      LDR      r0,[pc,#32] ; [0x8001af0] = 0x2000073c
        0x08001ace:    f000ff53    ..S.    BL       USBD_RegisterClass ; 0x8002978
        0x08001ad2:    b108        ..      CBZ      r0,0x8001ad8 ; MX_USB_DEVICE_Init + 32
        0x08001ad4:    f7fefc2f    ../.    BL       Error_Handler ; 0x8000336
        0x08001ad8:    4805        .H      LDR      r0,[pc,#20] ; [0x8001af0] = 0x2000073c
        0x08001ada:    f000ffa3    ....    BL       USBD_Start ; 0x8002a24
        0x08001ade:    2800        .(      CMP      r0,#0
        0x08001ae0:    d003        ..      BEQ      0x8001aea ; MX_USB_DEVICE_Init + 50
        0x08001ae2:    e8bd4010    ...@    POP      {r4,lr}
        0x08001ae6:    f7febc26    ..&.    B        Error_Handler ; 0x8000336
        0x08001aea:    bd10        ..      POP      {r4,pc}
    $d
        0x08001aec:    20000018    ...     DCD    536870936
        0x08001af0:    2000073c    <..     DCD    536872764
        0x08001af4:    20000078    x..     DCD    536871032
    $t
    i.MemManage_Handler
    MemManage_Handler
        0x08001af8:    e7fe        ..      B        MemManage_Handler ; 0x8001af8
    i.NMI_Handler
    NMI_Handler
        0x08001afa:    e7fe        ..      B        NMI_Handler ; 0x8001afa
    i.PCD_EP_ISR_Handler
    PCD_EP_ISR_Handler
        0x08001afc:    e92d4ff8    -..O    PUSH     {r3-r11,lr}
        0x08001b00:    4604        .F      MOV      r4,r0
        0x08001b02:    f6407b8f    @..{    MOV      r11,#0xf8f
        0x08001b06:    f6487a0f    H..z    MOV      r10,#0x8f0f
        0x08001b0a:    f04f0902    O...    MOV      r9,#2
        0x08001b0e:    f44f6880    O..h    MOV      r8,#0x400
        0x08001b12:    e174        t.      B        0x8001dfe ; PCD_EP_ISR_Handler + 770
        0x08001b14:    f8b01044    ..D.    LDRH     r1,[r0,#0x44]
        0x08001b18:    f011060f    ....    ANDS     r6,r1,#0xf
        0x08001b1c:    d03a        :.      BEQ      0x8001b94 ; PCD_EP_ISR_Handler + 152
        0x08001b1e:    f8307026    0.&p    LDRH     r7,[r0,r6,LSL #2]
        0x08001b22:    0439        9.      LSLS     r1,r7,#16
        0x08001b24:    d57d        }.      BPL      0x8001c22 ; PCD_EP_ISR_Handler + 294
        0x08001b26:    f8301026    0.&.    LDRH     r1,[r0,r6,LSL #2]
        0x08001b2a:    ea01010b    ....    AND      r1,r1,r11
        0x08001b2e:    f0410180    A...    ORR      r1,r1,#0x80
        0x08001b32:    f8201026     .&.    STRH     r1,[r0,r6,LSL #2]
        0x08001b36:    eb060086    ....    ADD      r0,r6,r6,LSL #2
        0x08001b3a:    eb0405c0    ....    ADD      r5,r4,r0,LSL #3
        0x08001b3e:    f8950174    ..t.    LDRB     r0,[r5,#0x174]
        0x08001b42:    f50575b4    ...u    ADD      r5,r5,#0x168
        0x08001b46:    2800        .(      CMP      r0,#0
        0x08001b48:    d06c        l.      BEQ      0x8001c24 ; PCD_EP_ISR_Handler + 296
        0x08001b4a:    78e8        .x      LDRB     r0,[r5,#3]
        0x08001b4c:    2802        .(      CMP      r0,#2
        0x08001b4e:    d06a        j.      BEQ      0x8001c26 ; PCD_EP_ISR_Handler + 298
        0x08001b50:    7828        (x      LDRB     r0,[r5,#0]
        0x08001b52:    6822        "h      LDR      r2,[r4,#0]
        0x08001b54:    f8321020    2. .    LDRH     r1,[r2,r0,LSL #2]
        0x08001b58:    f648738f    H..s    MOV      r3,#0x8f8f
        0x08001b5c:    4019        .@      ANDS     r1,r1,r3
        0x08001b5e:    f24803c0    H...    MOV      r3,#0x80c0
        0x08001b62:    4319        .C      ORRS     r1,r1,r3
        0x08001b64:    f8221020    ". .    STRH     r1,[r2,r0,LSL #2]
        0x08001b68:    7828        (x      LDRB     r0,[r5,#0]
        0x08001b6a:    f8d4c000    ....    LDR      r12,[r4,#0]
        0x08001b6e:    f83c1020    <. .    LDRH     r1,[r12,r0,LSL #2]
        0x08001b72:    f8bc2050    ..P     LDRH     r2,[r12,#0x50]
        0x08001b76:    0449        I.      LSLS     r1,r1,#17
        0x08001b78:    d57e        ~.      BPL      0x8001c78 ; PCD_EP_ISR_Handler + 380
        0x08001b7a:    eb0900c0    ....    ADD      r0,r9,r0,LSL #3
        0x08001b7e:    1811        ..      ADDS     r1,r2,r0
        0x08001b80:    eb080041    ..A.    ADD      r0,r8,r1,LSL #1
        0x08001b84:    f83c0000    <...    LDRH     r0,[r12,r0]
        0x08001b88:    0580        ..      LSLS     r0,r0,#22
        0x08001b8a:    0d80        ..      LSRS     r0,r0,#22
        0x08001b8c:    9000        ..      STR      r0,[sp,#0]
        0x08001b8e:    d074        t.      BEQ      0x8001c7a ; PCD_EP_ISR_Handler + 382
        0x08001b90:    892a        *.      LDRH     r2,[r5,#8]
        0x08001b92:    e0d8        ..      B        0x8001d46 ; PCD_EP_ISR_Handler + 586
        0x08001b94:    06c9        ..      LSLS     r1,r1,#27
        0x08001b96:    d42d        -.      BMI      0x8001bf4 ; PCD_EP_ISR_Handler + 248
        0x08001b98:    8801        ..      LDRH     r1,[r0,#0]
        0x08001b9a:    ea01010a    ....    AND      r1,r1,r10
        0x08001b9e:    f4414100    A..A    ORR      r1,r1,#0x8000
        0x08001ba2:    8001        ..      STRH     r1,[r0,#0]
        0x08001ba4:    6821        !h      LDR      r1,[r4,#0]
        0x08001ba6:    f1040528    ..(.    ADD      r5,r4,#0x28
        0x08001baa:    f8b12050    ..P     LDRH     r2,[r1,#0x50]
        0x08001bae:    782b        +x      LDRB     r3,[r5,#0]
        0x08001bb0:    eb0900c3    ....    ADD      r0,r9,r3,LSL #3
        0x08001bb4:    4402        .D      ADD      r2,r2,r0
        0x08001bb6:    eb080042    ..B.    ADD      r0,r8,r2,LSL #1
        0x08001bba:    5a08        .Z      LDRH     r0,[r1,r0]
        0x08001bbc:    f3c00009    ....    UBFX     r0,r0,#0,#10
        0x08001bc0:    6460        `d      STR      r0,[r4,#0x44]
        0x08001bc2:    6be1        .k      LDR      r1,[r4,#0x3c]
        0x08001bc4:    4408        .D      ADD      r0,r0,r1
        0x08001bc6:    63e0        .c      STR      r0,[r4,#0x3c]
        0x08001bc8:    2100        .!      MOVS     r1,#0
        0x08001bca:    4620         F      MOV      r0,r4
        0x08001bcc:    f7fefd63    ..c.    BL       HAL_PCD_DataInStageCallback ; 0x8000696
        0x08001bd0:    f8940024    ..$.    LDRB     r0,[r4,#0x24]
        0x08001bd4:    2800        .(      CMP      r0,#0
        0x08001bd6:    d09c        ..      BEQ      0x8001b12 ; PCD_EP_ISR_Handler + 22
        0x08001bd8:    69a8        .i      LDR      r0,[r5,#0x18]
        0x08001bda:    2800        .(      CMP      r0,#0
        0x08001bdc:    d199        ..      BNE      0x8001b12 ; PCD_EP_ISR_Handler + 22
        0x08001bde:    f8940024    ..$.    LDRB     r0,[r4,#0x24]
        0x08001be2:    6821        !h      LDR      r1,[r4,#0]
        0x08001be4:    f0400080    @...    ORR      r0,r0,#0x80
        0x08001be8:    f8a1004c    ..L.    STRH     r0,[r1,#0x4c]
        0x08001bec:    2000        .       MOVS     r0,#0
        0x08001bee:    f8840024    ..$.    STRB     r0,[r4,#0x24]
        0x08001bf2:    e104        ..      B        0x8001dfe ; PCD_EP_ISR_Handler + 770
        0x08001bf4:    8801        ..      LDRH     r1,[r0,#0]
        0x08001bf6:    f50475b4    ...u    ADD      r5,r4,#0x168
        0x08001bfa:    050a        ..      LSLS     r2,r1,#20
        0x08001bfc:    d521        !.      BPL      0x8001c42 ; PCD_EP_ISR_Handler + 326
        0x08001bfe:    f8b02050    ..P     LDRH     r2,[r0,#0x50]
        0x08001c02:    782b        +x      LDRB     r3,[r5,#0]
        0x08001c04:    2106        .!      MOVS     r1,#6
        0x08001c06:    eb0101c3    ....    ADD      r1,r1,r3,LSL #3
        0x08001c0a:    440a        .D      ADD      r2,r2,r1
        0x08001c0c:    eb080142    ..B.    ADD      r1,r8,r2,LSL #1
        0x08001c10:    5a40        @Z      LDRH     r0,[r0,r1]
        0x08001c12:    f504712c    ..,q    ADD      r1,r4,#0x2b0
        0x08001c16:    f3c00309    ....    UBFX     r3,r0,#0,#10
        0x08001c1a:    61eb        .a      STR      r3,[r5,#0x1c]
        0x08001c1c:    88ea        ..      LDRH     r2,[r5,#6]
        0x08001c1e:    6820         h      LDR      r0,[r4,#0]
        0x08001c20:    e002        ..      B        0x8001c28 ; PCD_EP_ISR_Handler + 300
        0x08001c22:    e0ac        ..      B        0x8001d7e ; PCD_EP_ISR_Handler + 642
        0x08001c24:    e068        h.      B        0x8001cf8 ; PCD_EP_ISR_Handler + 508
        0x08001c26:    e07a        z.      B        0x8001d1e ; PCD_EP_ISR_Handler + 546
        0x08001c28:    f001fd98    ....    BL       USB_ReadPMA ; 0x800375c
        0x08001c2c:    6821        !h      LDR      r1,[r4,#0]
        0x08001c2e:    8808        ..      LDRH     r0,[r1,#0]
        0x08001c30:    ea00000b    ....    AND      r0,r0,r11
        0x08001c34:    f0400080    @...    ORR      r0,r0,#0x80
        0x08001c38:    8008        ..      STRH     r0,[r1,#0]
        0x08001c3a:    4620         F      MOV      r0,r4
        0x08001c3c:    f7fff9a7    ....    BL       HAL_PCD_SetupStageCallback ; 0x8000f8e
        0x08001c40:    e0dd        ..      B        0x8001dfe ; PCD_EP_ISR_Handler + 770
        0x08001c42:    0409        ..      LSLS     r1,r1,#16
        0x08001c44:    d5d5        ..      BPL      0x8001bf2 ; PCD_EP_ISR_Handler + 246
        0x08001c46:    8801        ..      LDRH     r1,[r0,#0]
        0x08001c48:    ea01010b    ....    AND      r1,r1,r11
        0x08001c4c:    f0410180    A...    ORR      r1,r1,#0x80
        0x08001c50:    8001        ..      STRH     r1,[r0,#0]
        0x08001c52:    6820         h      LDR      r0,[r4,#0]
        0x08001c54:    f8b02050    ..P     LDRH     r2,[r0,#0x50]
        0x08001c58:    782b        +x      LDRB     r3,[r5,#0]
        0x08001c5a:    2106        .!      MOVS     r1,#6
        0x08001c5c:    eb0101c3    ....    ADD      r1,r1,r3,LSL #3
        0x08001c60:    440a        .D      ADD      r2,r2,r1
        0x08001c62:    eb080142    ..B.    ADD      r1,r8,r2,LSL #1
        0x08001c66:    5a40        @Z      LDRH     r0,[r0,r1]
        0x08001c68:    0583        ..      LSLS     r3,r0,#22
        0x08001c6a:    0d9b        ..      LSRS     r3,r3,#22
        0x08001c6c:    61eb        .a      STR      r3,[r5,#0x1c]
        0x08001c6e:    d010        ..      BEQ      0x8001c92 ; PCD_EP_ISR_Handler + 406
        0x08001c70:    6969        ii      LDR      r1,[r5,#0x14]
        0x08001c72:    b171        q.      CBZ      r1,0x8001c92 ; PCD_EP_ISR_Handler + 406
        0x08001c74:    88ea        ..      LDRH     r2,[r5,#6]
        0x08001c76:    e001        ..      B        0x8001c7c ; PCD_EP_ISR_Handler + 384
        0x08001c78:    e058        X.      B        0x8001d2c ; PCD_EP_ISR_Handler + 560
        0x08001c7a:    e056        V.      B        0x8001d2a ; PCD_EP_ISR_Handler + 558
        0x08001c7c:    6820         h      LDR      r0,[r4,#0]
        0x08001c7e:    f001fd6d    ..m.    BL       USB_ReadPMA ; 0x800375c
        0x08001c82:    69e9        .i      LDR      r1,[r5,#0x1c]
        0x08001c84:    6968        hi      LDR      r0,[r5,#0x14]
        0x08001c86:    4408        .D      ADD      r0,r0,r1
        0x08001c88:    6168        ha      STR      r0,[r5,#0x14]
        0x08001c8a:    2100        .!      MOVS     r1,#0
        0x08001c8c:    4620         F      MOV      r0,r4
        0x08001c8e:    f7fefd0b    ....    BL       HAL_PCD_DataOutStageCallback ; 0x80006a8
        0x08001c92:    6820         h      LDR      r0,[r4,#0]
        0x08001c94:    8801        ..      LDRH     r1,[r0,#0]
        0x08001c96:    0509        ..      LSLS     r1,r1,#20
        0x08001c98:    d42d        -.      BMI      0x8001cf6 ; PCD_EP_ISR_Handler + 506
        0x08001c9a:    f8b01050    ..P.    LDRH     r1,[r0,#0x50]
        0x08001c9e:    4408        .D      ADD      r0,r0,r1
        0x08001ca0:    6929        )i      LDR      r1,[r5,#0x10]
        0x08001ca2:    f200400c    ...@    ADD      r0,r0,#0x40c
        0x08001ca6:    b151        Q.      CBZ      r1,0x8001cbe ; PCD_EP_ISR_Handler + 450
        0x08001ca8:    293e        >)      CMP      r1,#0x3e
        0x08001caa:    d810        ..      BHI      0x8001cce ; PCD_EP_ISR_Handler + 466
        0x08001cac:    084a        J.      LSRS     r2,r1,#1
        0x08001cae:    07c9        ..      LSLS     r1,r1,#31
        0x08001cb0:    d000        ..      BEQ      0x8001cb4 ; PCD_EP_ISR_Handler + 440
        0x08001cb2:    1c52        R.      ADDS     r2,r2,#1
        0x08001cb4:    f64f71ff    O..q    MOV      r1,#0xffff
        0x08001cb8:    ea012182    ...!    AND      r1,r1,r2,LSL #10
        0x08001cbc:    e00f        ..      B        0x8001cde ; PCD_EP_ISR_Handler + 482
        0x08001cbe:    8801        ..      LDRH     r1,[r0,#0]
        0x08001cc0:    f42141f8    !..A    BIC      r1,r1,#0x7c00
        0x08001cc4:    8001        ..      STRH     r1,[r0,#0]
        0x08001cc6:    8801        ..      LDRH     r1,[r0,#0]
        0x08001cc8:    f4414100    A..A    ORR      r1,r1,#0x8000
        0x08001ccc:    e007        ..      B        0x8001cde ; PCD_EP_ISR_Handler + 482
        0x08001cce:    094a        J.      LSRS     r2,r1,#5
        0x08001cd0:    06c9        ..      LSLS     r1,r1,#27
        0x08001cd2:    d100        ..      BNE      0x8001cd6 ; PCD_EP_ISR_Handler + 474
        0x08001cd4:    1e52        R.      SUBS     r2,r2,#1
        0x08001cd6:    f44f4100    O..A    MOV      r1,#0x8000
        0x08001cda:    ea412182    A..!    ORR      r1,r1,r2,LSL #10
        0x08001cde:    8001        ..      STRH     r1,[r0,#0]
        0x08001ce0:    6820         h      LDR      r0,[r4,#0]
        0x08001ce2:    8801        ..      LDRH     r1,[r0,#0]
        0x08001ce4:    f64b728f    K..r    MOV      r2,#0xbf8f
        0x08001ce8:    4011        .@      ANDS     r1,r1,r2
        0x08001cea:    f4815140    ..@Q    EOR      r1,r1,#0x3000
        0x08001cee:    f2480280    H...    MOV      r2,#0x8080
        0x08001cf2:    4311        .C      ORRS     r1,r1,r2
        0x08001cf4:    8001        ..      STRH     r1,[r0,#0]
        0x08001cf6:    e082        ..      B        0x8001dfe ; PCD_EP_ISR_Handler + 770
        0x08001cf8:    f8d4c000    ....    LDR      r12,[r4,#0]
        0x08001cfc:    f8bc1050    ..P.    LDRH     r1,[r12,#0x50]
        0x08001d00:    782a        *x      LDRB     r2,[r5,#0]
        0x08001d02:    2006        .       MOVS     r0,#6
        0x08001d04:    eb0000c2    ....    ADD      r0,r0,r2,LSL #3
        0x08001d08:    4401        .D      ADD      r1,r1,r0
        0x08001d0a:    eb080041    ..A.    ADD      r0,r8,r1,LSL #1
        0x08001d0e:    f83c0000    <...    LDRH     r0,[r12,r0]
        0x08001d12:    0580        ..      LSLS     r0,r0,#22
        0x08001d14:    0d80        ..      LSRS     r0,r0,#22
        0x08001d16:    9000        ..      STR      r0,[sp,#0]
        0x08001d18:    d01a        ..      BEQ      0x8001d50 ; PCD_EP_ISR_Handler + 596
        0x08001d1a:    88ea        ..      LDRH     r2,[r5,#6]
        0x08001d1c:    e013        ..      B        0x8001d46 ; PCD_EP_ISR_Handler + 586
        0x08001d1e:    463a        :F      MOV      r2,r7
        0x08001d20:    4629        )F      MOV      r1,r5
        0x08001d22:    4620         F      MOV      r0,r4
        0x08001d24:    f7fefd1e    ....    BL       HAL_PCD_EP_DB_Receive ; 0x8000764
        0x08001d28:    9000        ..      STR      r0,[sp,#0]
        0x08001d2a:    e011        ..      B        0x8001d50 ; PCD_EP_ISR_Handler + 596
        0x08001d2c:    2106        .!      MOVS     r1,#6
        0x08001d2e:    eb0100c0    ....    ADD      r0,r1,r0,LSL #3
        0x08001d32:    1811        ..      ADDS     r1,r2,r0
        0x08001d34:    eb080041    ..A.    ADD      r0,r8,r1,LSL #1
        0x08001d38:    f83c0000    <...    LDRH     r0,[r12,r0]
        0x08001d3c:    0580        ..      LSLS     r0,r0,#22
        0x08001d3e:    0d80        ..      LSRS     r0,r0,#22
        0x08001d40:    9000        ..      STR      r0,[sp,#0]
        0x08001d42:    d005        ..      BEQ      0x8001d50 ; PCD_EP_ISR_Handler + 596
        0x08001d44:    896a        j.      LDRH     r2,[r5,#0xa]
        0x08001d46:    4603        .F      MOV      r3,r0
        0x08001d48:    4660        `F      MOV      r0,r12
        0x08001d4a:    6969        ii      LDR      r1,[r5,#0x14]
        0x08001d4c:    f001fd06    ....    BL       USB_ReadPMA ; 0x800375c
        0x08001d50:    69e9        .i      LDR      r1,[r5,#0x1c]
        0x08001d52:    9800        ..      LDR      r0,[sp,#0]
        0x08001d54:    4408        .D      ADD      r0,r0,r1
        0x08001d56:    61e8        .a      STR      r0,[r5,#0x1c]
        0x08001d58:    6969        ii      LDR      r1,[r5,#0x14]
        0x08001d5a:    9800        ..      LDR      r0,[sp,#0]
        0x08001d5c:    4408        .D      ADD      r0,r0,r1
        0x08001d5e:    6168        ha      STR      r0,[r5,#0x14]
        0x08001d60:    69a8        .i      LDR      r0,[r5,#0x18]
        0x08001d62:    b118        ..      CBZ      r0,0x8001d6c ; PCD_EP_ISR_Handler + 624
        0x08001d64:    6929        )i      LDR      r1,[r5,#0x10]
        0x08001d66:    9800        ..      LDR      r0,[sp,#0]
        0x08001d68:    4281        .B      CMP      r1,r0
        0x08001d6a:    d904        ..      BLS      0x8001d76 ; PCD_EP_ISR_Handler + 634
        0x08001d6c:    7829        )x      LDRB     r1,[r5,#0]
        0x08001d6e:    4620         F      MOV      r0,r4
        0x08001d70:    f7fefc9a    ....    BL       HAL_PCD_DataOutStageCallback ; 0x80006a8
        0x08001d74:    e003        ..      B        0x8001d7e ; PCD_EP_ISR_Handler + 642
        0x08001d76:    4629        )F      MOV      r1,r5
        0x08001d78:    6820         h      LDR      r0,[r4,#0]
        0x08001d7a:    f001f9d5    ....    BL       USB_EPStartXfer ; 0x8003128
        0x08001d7e:    0638        8.      LSLS     r0,r7,#24
        0x08001d80:    d53d        =.      BPL      0x8001dfe ; PCD_EP_ISR_Handler + 770
        0x08001d82:    eb060086    ....    ADD      r0,r6,r6,LSL #2
        0x08001d86:    eb0401c0    ....    ADD      r1,r4,r0,LSL #3
        0x08001d8a:    6820         h      LDR      r0,[r4,#0]
        0x08001d8c:    f8302026    0.&     LDRH     r2,[r0,r6,LSL #2]
        0x08001d90:    ea02020a    ....    AND      r2,r2,r10
        0x08001d94:    f4424200    B..B    ORR      r2,r2,#0x8000
        0x08001d98:    f8202026     .&     STRH     r2,[r0,r6,LSL #2]
        0x08001d9c:    f891002b    ..+.    LDRB     r0,[r1,#0x2b]
        0x08001da0:    3128        (1      ADDS     r1,r1,#0x28
        0x08001da2:    2803        .(      CMP      r0,#3
        0x08001da4:    d004        ..      BEQ      0x8001db0 ; PCD_EP_ISR_Handler + 692
        0x08001da6:    b118        ..      CBZ      r0,0x8001db0 ; PCD_EP_ISR_Handler + 692
        0x08001da8:    2802        .(      CMP      r0,#2
        0x08001daa:    d124        $.      BNE      0x8001df6 ; PCD_EP_ISR_Handler + 762
        0x08001dac:    05f8        ..      LSLS     r0,r7,#23
        0x08001dae:    d422        ".      BMI      0x8001df6 ; PCD_EP_ISR_Handler + 762
        0x08001db0:    6823        #h      LDR      r3,[r4,#0]
        0x08001db2:    f8b32050    ..P     LDRH     r2,[r3,#0x50]
        0x08001db6:    780d        .x      LDRB     r5,[r1,#0]
        0x08001db8:    eb0900c5    ....    ADD      r0,r9,r5,LSL #3
        0x08001dbc:    4402        .D      ADD      r2,r2,r0
        0x08001dbe:    eb080042    ..B.    ADD      r0,r8,r2,LSL #1
        0x08001dc2:    5a18        .Z      LDRH     r0,[r3,r0]
        0x08001dc4:    698a        .i      LDR      r2,[r1,#0x18]
        0x08001dc6:    f3c00009    ....    UBFX     r0,r0,#0,#10
        0x08001dca:    4282        .B      CMP      r2,r0
        0x08001dcc:    d90c        ..      BLS      0x8001de8 ; PCD_EP_ISR_Handler + 748
        0x08001dce:    1a12        ..      SUBS     r2,r2,r0
        0x08001dd0:    618a        .a      STR      r2,[r1,#0x18]
        0x08001dd2:    d00b        ..      BEQ      0x8001dec ; PCD_EP_ISR_Handler + 752
        0x08001dd4:    694a        Ji      LDR      r2,[r1,#0x14]
        0x08001dd6:    4402        .D      ADD      r2,r2,r0
        0x08001dd8:    614a        Ja      STR      r2,[r1,#0x14]
        0x08001dda:    69ca        .i      LDR      r2,[r1,#0x1c]
        0x08001ddc:    4410        .D      ADD      r0,r0,r2
        0x08001dde:    61c8        .a      STR      r0,[r1,#0x1c]
        0x08001de0:    6820         h      LDR      r0,[r4,#0]
        0x08001de2:    f001f9a1    ....    BL       USB_EPStartXfer ; 0x8003128
        0x08001de6:    e00a        ..      B        0x8001dfe ; PCD_EP_ISR_Handler + 770
        0x08001de8:    2000        .       MOVS     r0,#0
        0x08001dea:    6188        .a      STR      r0,[r1,#0x18]
        0x08001dec:    b2e9        ..      UXTB     r1,r5
        0x08001dee:    4620         F      MOV      r0,r4
        0x08001df0:    f7fefc51    ..Q.    BL       HAL_PCD_DataInStageCallback ; 0x8000696
        0x08001df4:    e003        ..      B        0x8001dfe ; PCD_EP_ISR_Handler + 770
        0x08001df6:    463a        :F      MOV      r2,r7
        0x08001df8:    4620         F      MOV      r0,r4
        0x08001dfa:    f7fefd26    ..&.    BL       HAL_PCD_EP_DB_Transmit ; 0x800084a
        0x08001dfe:    6820         h      LDR      r0,[r4,#0]
        0x08001e00:    f8b01044    ..D.    LDRH     r1,[r0,#0x44]
        0x08001e04:    0409        ..      LSLS     r1,r1,#16
        0x08001e06:    f53fae85    ?...    BMI      0x8001b14 ; PCD_EP_ISR_Handler + 24
        0x08001e0a:    2000        .       MOVS     r0,#0
        0x08001e0c:    e8bd8ff8    ....    POP      {r3-r11,pc}
    i.PendSV_Handler
    PendSV_Handler
        0x08001e10:    4770        pG      BX       lr
    i.SVC_Handler
    SVC_Handler
        0x08001e12:    4770        pG      BX       lr
    i.SysTick_Handler
    SysTick_Handler
        0x08001e14:    f7febb88    ....    B        HAL_IncTick ; 0x8000528
    i.SystemClock_Config
    SystemClock_Config
        0x08001e18:    b530        0.      PUSH     {r4,r5,lr}
        0x08001e1a:    b093        ..      SUB      sp,sp,#0x4c
        0x08001e1c:    2128        (!      MOVS     r1,#0x28
        0x08001e1e:    4668        hF      MOV      r0,sp
        0x08001e20:    f7fefa24    ..$.    BL       __aeabi_memclr4 ; 0x800026c
        0x08001e24:    2114        .!      MOVS     r1,#0x14
        0x08001e26:    a80a        ..      ADD      r0,sp,#0x28
        0x08001e28:    f7fefa20    .. .    BL       __aeabi_memclr4 ; 0x800026c
        0x08001e2c:    2400        .$      MOVS     r4,#0
        0x08001e2e:    2001        .       MOVS     r0,#1
        0x08001e30:    940f        ..      STR      r4,[sp,#0x3c]
        0x08001e32:    9410        ..      STR      r4,[sp,#0x40]
        0x08001e34:    9411        ..      STR      r4,[sp,#0x44]
        0x08001e36:    0401        ..      LSLS     r1,r0,#16
        0x08001e38:    9412        ..      STR      r4,[sp,#0x48]
        0x08001e3a:    e88d0013    ....    STM      sp,{r0,r1,r4}
        0x08001e3e:    9004        ..      STR      r0,[sp,#0x10]
        0x08001e40:    f44f10e0    O...    MOV      r0,#0x1c0000
        0x08001e44:    e9cd1008    ....    STRD     r1,r0,[sp,#0x20]
        0x08001e48:    2502        .%      MOVS     r5,#2
        0x08001e4a:    9507        ..      STR      r5,[sp,#0x1c]
        0x08001e4c:    4668        hF      MOV      r0,sp
        0x08001e4e:    f7fffa33    ..3.    BL       HAL_RCC_OscConfig ; 0x80012b8
        0x08001e52:    b108        ..      CBZ      r0,0x8001e58 ; SystemClock_Config + 64
        0x08001e54:    b672        r.      CPSID    i
        0x08001e56:    e7fe        ..      B        0x8001e56 ; SystemClock_Config + 62
        0x08001e58:    200f        .       MOVS     r0,#0xf
        0x08001e5a:    e9cd050a    ....    STRD     r0,r5,[sp,#0x28]
        0x08001e5e:    f44f6080    O..`    MOV      r0,#0x400
        0x08001e62:    e9cd400c    ...@    STRD     r4,r0,[sp,#0x30]
        0x08001e66:    2102        .!      MOVS     r1,#2
        0x08001e68:    a80a        ..      ADD      r0,sp,#0x28
        0x08001e6a:    940e        ..      STR      r4,[sp,#0x38]
        0x08001e6c:    f7fff938    ..8.    BL       HAL_RCC_ClockConfig ; 0x80010e0
        0x08001e70:    b108        ..      CBZ      r0,0x8001e76 ; SystemClock_Config + 94
        0x08001e72:    b672        r.      CPSID    i
        0x08001e74:    e7fe        ..      B        0x8001e74 ; SystemClock_Config + 92
        0x08001e76:    2010        .       MOVS     r0,#0x10
        0x08001e78:    900f        ..      STR      r0,[sp,#0x3c]
        0x08001e7a:    9412        ..      STR      r4,[sp,#0x48]
        0x08001e7c:    a80f        ..      ADD      r0,sp,#0x3c
        0x08001e7e:    f7fff8b9    ....    BL       HAL_RCCEx_PeriphCLKConfig ; 0x8000ff4
        0x08001e82:    2800        .(      CMP      r0,#0
        0x08001e84:    d001        ..      BEQ      0x8001e8a ; SystemClock_Config + 114
        0x08001e86:    b672        r.      CPSID    i
        0x08001e88:    e7fe        ..      B        0x8001e88 ; SystemClock_Config + 112
        0x08001e8a:    b013        ..      ADD      sp,sp,#0x4c
        0x08001e8c:    bd30        0.      POP      {r4,r5,pc}
    i.SystemInit
    SystemInit
        0x08001e8e:    4770        pG      BX       lr
    i.UART1_Available
    UART1_Available
        0x08001e90:    4804        .H      LDR      r0,[pc,#16] ; [0x8001ea4] = 0x2000000b
        0x08001e92:    7841        Ax      LDRB     r1,[r0,#1]
        0x08001e94:    7800        .x      LDRB     r0,[r0,#0]
        0x08001e96:    4281        .B      CMP      r1,r0
        0x08001e98:    d001        ..      BEQ      0x8001e9e ; UART1_Available + 14
        0x08001e9a:    2001        .       MOVS     r0,#1
        0x08001e9c:    4770        pG      BX       lr
        0x08001e9e:    2000        .       MOVS     r0,#0
        0x08001ea0:    4770        pG      BX       lr
    $d
        0x08001ea2:    0000        ..      DCW    0
        0x08001ea4:    2000000b    ...     DCD    536870923
    $t
    i.UART1_Begin
    UART1_Begin
        0x08001ea8:    4805        .H      LDR      r0,[pc,#20] ; [0x8001ec0] = 0x4001380c
        0x08001eaa:    6801        .h      LDR      r1,[r0,#0]
        0x08001eac:    4a05        .J      LDR      r2,[pc,#20] ; [0x8001ec4] = 0x10000040
        0x08001eae:    4311        .C      ORRS     r1,r1,r2
        0x08001eb0:    6001        .`      STR      r1,[r0,#0]
        0x08001eb2:    6801        .h      LDR      r1,[r0,#0]
        0x08001eb4:    4a03        .J      LDR      r2,[pc,#12] ; [0x8001ec4] = 0x10000040
        0x08001eb6:    3a20         :      SUBS     r2,r2,#0x20
        0x08001eb8:    4311        .C      ORRS     r1,r1,r2
        0x08001eba:    6001        .`      STR      r1,[r0,#0]
        0x08001ebc:    4770        pG      BX       lr
    $d
        0x08001ebe:    0000        ..      DCW    0
        0x08001ec0:    4001380c    .8.@    DCD    1073821708
        0x08001ec4:    10000040    @...    DCD    268435520
    $t
    i.UART1_Get
    UART1_Get
        0x08001ec8:    4903        .I      LDR      r1,[pc,#12] ; [0x8001ed8] = 0x2000000b
        0x08001eca:    7848        Hx      LDRB     r0,[r1,#1]
        0x08001ecc:    4a03        .J      LDR      r2,[pc,#12] ; [0x8001edc] = 0x20000270
        0x08001ece:    4402        .D      ADD      r2,r2,r0
        0x08001ed0:    1c40        @.      ADDS     r0,r0,#1
        0x08001ed2:    7048        Hp      STRB     r0,[r1,#1]
        0x08001ed4:    7810        .x      LDRB     r0,[r2,#0]
        0x08001ed6:    4770        pG      BX       lr
    $d
        0x08001ed8:    2000000b    ...     DCD    536870923
        0x08001edc:    20000270    p..     DCD    536871536
    $t
    i.UART1_Send
    UART1_Send
        0x08001ee0:    4a0a        .J      LDR      r2,[pc,#40] ; [0x8001f0c] = 0x2000000b
        0x08001ee2:    b510        ..      PUSH     {r4,lr}
        0x08001ee4:    7891        .x      LDRB     r1,[r2,#2]
        0x08001ee6:    4b0a        .K      LDR      r3,[pc,#40] ; [0x8001f10] = 0x20000370
        0x08001ee8:    185c        \.      ADDS     r4,r3,r1
        0x08001eea:    1c49        I.      ADDS     r1,r1,#1
        0x08001eec:    7091        .p      STRB     r1,[r2,#2]
        0x08001eee:    7020         p      STRB     r0,[r4,#0]
        0x08001ef0:    7910        .y      LDRB     r0,[r2,#4]
        0x08001ef2:    2800        .(      CMP      r0,#0
        0x08001ef4:    d108        ..      BNE      0x8001f08 ; UART1_Send + 40
        0x08001ef6:    2001        .       MOVS     r0,#1
        0x08001ef8:    7110        .q      STRB     r0,[r2,#4]
        0x08001efa:    78d0        .x      LDRB     r0,[r2,#3]
        0x08001efc:    1819        ..      ADDS     r1,r3,r0
        0x08001efe:    1c40        @.      ADDS     r0,r0,#1
        0x08001f00:    70d0        .p      STRB     r0,[r2,#3]
        0x08001f02:    7808        .x      LDRB     r0,[r1,#0]
        0x08001f04:    4903        .I      LDR      r1,[pc,#12] ; [0x8001f14] = 0x40013804
        0x08001f06:    6008        .`      STR      r0,[r1,#0]
        0x08001f08:    bd10        ..      POP      {r4,pc}
    $d
        0x08001f0a:    0000        ..      DCW    0
        0x08001f0c:    2000000b    ...     DCD    536870923
        0x08001f10:    20000370    p..     DCD    536871792
        0x08001f14:    40013804    .8.@    DCD    1073821700
    $t
    i.UART2_Begin
    UART2_Begin
        0x08001f18:    4802        .H      LDR      r0,[pc,#8] ; [0x8001f24] = 0x4000440c
        0x08001f1a:    6801        .h      LDR      r1,[r0,#0]
        0x08001f1c:    4a02        .J      LDR      r2,[pc,#8] ; [0x8001f28] = 0x10000040
        0x08001f1e:    4311        .C      ORRS     r1,r1,r2
        0x08001f20:    6001        .`      STR      r1,[r0,#0]
        0x08001f22:    4770        pG      BX       lr
    $d
        0x08001f24:    4000440c    .D.@    DCD    1073759244
        0x08001f28:    10000040    @...    DCD    268435520
    $t
    i.UART2_Send
    UART2_Send
        0x08001f2c:    4a0a        .J      LDR      r2,[pc,#40] ; [0x8001f58] = 0x2000000b
        0x08001f2e:    b510        ..      PUSH     {r4,lr}
        0x08001f30:    7951        Qy      LDRB     r1,[r2,#5]
        0x08001f32:    4b0a        .K      LDR      r3,[pc,#40] ; [0x8001f5c] = 0x20000470
        0x08001f34:    185c        \.      ADDS     r4,r3,r1
        0x08001f36:    1c49        I.      ADDS     r1,r1,#1
        0x08001f38:    7151        Qq      STRB     r1,[r2,#5]
        0x08001f3a:    7020         p      STRB     r0,[r4,#0]
        0x08001f3c:    79d0        .y      LDRB     r0,[r2,#7]
        0x08001f3e:    2800        .(      CMP      r0,#0
        0x08001f40:    d108        ..      BNE      0x8001f54 ; UART2_Send + 40
        0x08001f42:    2001        .       MOVS     r0,#1
        0x08001f44:    71d0        .q      STRB     r0,[r2,#7]
        0x08001f46:    7990        .y      LDRB     r0,[r2,#6]
        0x08001f48:    1819        ..      ADDS     r1,r3,r0
        0x08001f4a:    1c40        @.      ADDS     r0,r0,#1
        0x08001f4c:    7190        .q      STRB     r0,[r2,#6]
        0x08001f4e:    7808        .x      LDRB     r0,[r1,#0]
        0x08001f50:    4903        .I      LDR      r1,[pc,#12] ; [0x8001f60] = 0x40004404
        0x08001f52:    6008        .`      STR      r0,[r1,#0]
        0x08001f54:    bd10        ..      POP      {r4,pc}
    $d
        0x08001f56:    0000        ..      DCW    0
        0x08001f58:    2000000b    ...     DCD    536870923
        0x08001f5c:    20000470    p..     DCD    536872048
        0x08001f60:    40004404    .D.@    DCD    1073759236
    $t
    i.UART3_Begin
    UART3_Begin
        0x08001f64:    4802        .H      LDR      r0,[pc,#8] ; [0x8001f70] = 0x4000480c
        0x08001f66:    6801        .h      LDR      r1,[r0,#0]
        0x08001f68:    4a02        .J      LDR      r2,[pc,#8] ; [0x8001f74] = 0x10000040
        0x08001f6a:    4311        .C      ORRS     r1,r1,r2
        0x08001f6c:    6001        .`      STR      r1,[r0,#0]
        0x08001f6e:    4770        pG      BX       lr
    $d
        0x08001f70:    4000480c    .H.@    DCD    1073760268
        0x08001f74:    10000040    @...    DCD    268435520
    $t
    i.UART3_Send
    UART3_Send
        0x08001f78:    4a0a        .J      LDR      r2,[pc,#40] ; [0x8001fa4] = 0x2000000b
        0x08001f7a:    b510        ..      PUSH     {r4,lr}
        0x08001f7c:    7a11        .z      LDRB     r1,[r2,#8]
        0x08001f7e:    4b0a        .K      LDR      r3,[pc,#40] ; [0x8001fa8] = 0x20000570
        0x08001f80:    185c        \.      ADDS     r4,r3,r1
        0x08001f82:    1c49        I.      ADDS     r1,r1,#1
        0x08001f84:    7211        .r      STRB     r1,[r2,#8]
        0x08001f86:    7020         p      STRB     r0,[r4,#0]
        0x08001f88:    7a90        .z      LDRB     r0,[r2,#0xa]
        0x08001f8a:    2800        .(      CMP      r0,#0
        0x08001f8c:    d108        ..      BNE      0x8001fa0 ; UART3_Send + 40
        0x08001f8e:    2001        .       MOVS     r0,#1
        0x08001f90:    7290        .r      STRB     r0,[r2,#0xa]
        0x08001f92:    7a50        Pz      LDRB     r0,[r2,#9]
        0x08001f94:    1819        ..      ADDS     r1,r3,r0
        0x08001f96:    1c40        @.      ADDS     r0,r0,#1
        0x08001f98:    7250        Pr      STRB     r0,[r2,#9]
        0x08001f9a:    7808        .x      LDRB     r0,[r1,#0]
        0x08001f9c:    4903        .I      LDR      r1,[pc,#12] ; [0x8001fac] = 0x40004804
        0x08001f9e:    6008        .`      STR      r0,[r1,#0]
        0x08001fa0:    bd10        ..      POP      {r4,pc}
    $d
        0x08001fa2:    0000        ..      DCW    0
        0x08001fa4:    2000000b    ...     DCD    536870923
        0x08001fa8:    20000570    p..     DCD    536872304
        0x08001fac:    40004804    .H.@    DCD    1073760260
    $t
    i.UART_SetConfig
    UART_SetConfig
        0x08001fb0:    b570        p.      PUSH     {r4-r6,lr}
        0x08001fb2:    4604        .F      MOV      r4,r0
        0x08001fb4:    6800        .h      LDR      r0,[r0,#0]
        0x08001fb6:    6901        .i      LDR      r1,[r0,#0x10]
        0x08001fb8:    68e2        .h      LDR      r2,[r4,#0xc]
        0x08001fba:    f4215140    !.@Q    BIC      r1,r1,#0x3000
        0x08001fbe:    4311        .C      ORRS     r1,r1,r2
        0x08001fc0:    6101        .a      STR      r1,[r0,#0x10]
        0x08001fc2:    6921        !i      LDR      r1,[r4,#0x10]
        0x08001fc4:    68a0        .h      LDR      r0,[r4,#8]
        0x08001fc6:    4308        .C      ORRS     r0,r0,r1
        0x08001fc8:    6961        ai      LDR      r1,[r4,#0x14]
        0x08001fca:    4308        .C      ORRS     r0,r0,r1
        0x08001fcc:    6821        !h      LDR      r1,[r4,#0]
        0x08001fce:    68ca        .h      LDR      r2,[r1,#0xc]
        0x08001fd0:    f241630c    A..c    MOV      r3,#0x160c
        0x08001fd4:    439a        .C      BICS     r2,r2,r3
        0x08001fd6:    4302        .C      ORRS     r2,r2,r0
        0x08001fd8:    60ca        .`      STR      r2,[r1,#0xc]
        0x08001fda:    6820         h      LDR      r0,[r4,#0]
        0x08001fdc:    6941        Ai      LDR      r1,[r0,#0x14]
        0x08001fde:    69a2        .i      LDR      r2,[r4,#0x18]
        0x08001fe0:    f4217140    !.@q    BIC      r1,r1,#0x300
        0x08001fe4:    4311        .C      ORRS     r1,r1,r2
        0x08001fe6:    6141        Aa      STR      r1,[r0,#0x14]
        0x08001fe8:    491e        .I      LDR      r1,[pc,#120] ; [0x8002064] = 0x40013800
        0x08001fea:    6820         h      LDR      r0,[r4,#0]
        0x08001fec:    4288        .B      CMP      r0,r1
        0x08001fee:    d102        ..      BNE      0x8001ff6 ; UART_SetConfig + 70
        0x08001ff0:    f7fff91c    ....    BL       HAL_RCC_GetPCLK2Freq ; 0x800122c
        0x08001ff4:    e001        ..      B        0x8001ffa ; UART_SetConfig + 74
        0x08001ff6:    f7fff909    ....    BL       HAL_RCC_GetPCLK1Freq ; 0x800120c
        0x08001ffa:    eb0001c0    ....    ADD      r1,r0,r0,LSL #3
        0x08001ffe:    eb011200    ....    ADD      r2,r1,r0,LSL #4
        0x08002002:    6860        `h      LDR      r0,[r4,#4]
        0x08002004:    2164        d!      MOVS     r1,#0x64
        0x08002006:    0080        ..      LSLS     r0,r0,#2
        0x08002008:    fbb2f3f0    ....    UDIV     r3,r2,r0
        0x0800200c:    fbb3f3f1    ....    UDIV     r3,r3,r1
        0x08002010:    f06f0618    o...    MVN      r6,#0x18
        0x08002014:    4373        sC      MULS     r3,r6,r3
        0x08002016:    fbb2f5f0    ....    UDIV     r5,r2,r0
        0x0800201a:    fbb2f6f0    ....    UDIV     r6,r2,r0
        0x0800201e:    eb050583    ....    ADD      r5,r5,r3,LSL #2
        0x08002022:    2332        2#      MOVS     r3,#0x32
        0x08002024:    eb031505    ....    ADD      r5,r3,r5,LSL #4
        0x08002028:    fbb5f5f1    ....    UDIV     r5,r5,r1
        0x0800202c:    fbb6f6f1    ....    UDIV     r6,r6,r1
        0x08002030:    f00505f0    ....    AND      r5,r5,#0xf0
        0x08002034:    eb051506    ....    ADD      r5,r5,r6,LSL #4
        0x08002038:    fbb2f6f0    ....    UDIV     r6,r2,r0
        0x0800203c:    fbb2f0f0    ....    UDIV     r0,r2,r0
        0x08002040:    fbb0f0f1    ....    UDIV     r0,r0,r1
        0x08002044:    f06f0218    o...    MVN      r2,#0x18
        0x08002048:    4350        PC      MULS     r0,r2,r0
        0x0800204a:    eb060080    ....    ADD      r0,r6,r0,LSL #2
        0x0800204e:    eb031000    ....    ADD      r0,r3,r0,LSL #4
        0x08002052:    fbb0f0f1    ....    UDIV     r0,r0,r1
        0x08002056:    6821        !h      LDR      r1,[r4,#0]
        0x08002058:    f000000f    ....    AND      r0,r0,#0xf
        0x0800205c:    4428        (D      ADD      r0,r0,r5
        0x0800205e:    6088        .`      STR      r0,[r1,#8]
        0x08002060:    bd70        p.      POP      {r4-r6,pc}
    $d
        0x08002062:    0000        ..      DCW    0
        0x08002064:    40013800    .8.@    DCD    1073821696
    $t
    i.USART1_IRQHandler
    USART1_IRQHandler
        0x08002068:    b530        0.      PUSH     {r4,r5,lr}
        0x0800206a:    4914        .I      LDR      r1,[pc,#80] ; [0x80020bc] = 0x40013800
        0x0800206c:    6808        .h      LDR      r0,[r1,#0]
        0x0800206e:    f1010304    ....    ADD      r3,r1,#4
        0x08002072:    0682        ..      LSLS     r2,r0,#26
        0x08002074:    4812        .H      LDR      r0,[pc,#72] ; [0x80020c0] = 0x2000000b
        0x08002076:    d50a        ..      BPL      0x800208e ; USART1_IRQHandler + 38
        0x08002078:    680a        .h      LDR      r2,[r1,#0]
        0x0800207a:    f0220220    ". .    BIC      r2,r2,#0x20
        0x0800207e:    600a        .`      STR      r2,[r1,#0]
        0x08002080:    681c        .h      LDR      r4,[r3,#0]
        0x08002082:    7802        .x      LDRB     r2,[r0,#0]
        0x08002084:    4d0f        .M      LDR      r5,[pc,#60] ; [0x80020c4] = 0x20000270
        0x08002086:    4415        .D      ADD      r5,r5,r2
        0x08002088:    1c52        R.      ADDS     r2,r2,#1
        0x0800208a:    7002        .p      STRB     r2,[r0,#0]
        0x0800208c:    702c        ,p      STRB     r4,[r5,#0]
        0x0800208e:    680a        .h      LDR      r2,[r1,#0]
        0x08002090:    0652        R.      LSLS     r2,r2,#25
        0x08002092:    d50e        ..      BPL      0x80020b2 ; USART1_IRQHandler + 74
        0x08002094:    680a        .h      LDR      r2,[r1,#0]
        0x08002096:    f0220240    ".@.    BIC      r2,r2,#0x40
        0x0800209a:    600a        .`      STR      r2,[r1,#0]
        0x0800209c:    78c1        .x      LDRB     r1,[r0,#3]
        0x0800209e:    7882        .x      LDRB     r2,[r0,#2]
        0x080020a0:    4291        .B      CMP      r1,r2
        0x080020a2:    d007        ..      BEQ      0x80020b4 ; USART1_IRQHandler + 76
        0x080020a4:    78c1        .x      LDRB     r1,[r0,#3]
        0x080020a6:    4a08        .J      LDR      r2,[pc,#32] ; [0x80020c8] = 0x20000370
        0x080020a8:    440a        .D      ADD      r2,r2,r1
        0x080020aa:    1c49        I.      ADDS     r1,r1,#1
        0x080020ac:    70c1        .p      STRB     r1,[r0,#3]
        0x080020ae:    7810        .x      LDRB     r0,[r2,#0]
        0x080020b0:    6018        .`      STR      r0,[r3,#0]
        0x080020b2:    bd30        0.      POP      {r4,r5,pc}
        0x080020b4:    2100        .!      MOVS     r1,#0
        0x080020b6:    7101        .q      STRB     r1,[r0,#4]
        0x080020b8:    bd30        0.      POP      {r4,r5,pc}
    $d
        0x080020ba:    0000        ..      DCW    0
        0x080020bc:    40013800    .8.@    DCD    1073821696
        0x080020c0:    2000000b    ...     DCD    536870923
        0x080020c4:    20000270    p..     DCD    536871536
        0x080020c8:    20000370    p..     DCD    536871792
    $t
    i.USART2_IRQHandler
    USART2_IRQHandler
        0x080020cc:    480c        .H      LDR      r0,[pc,#48] ; [0x8002100] = 0x40004400
        0x080020ce:    6801        .h      LDR      r1,[r0,#0]
        0x080020d0:    0649        I.      LSLS     r1,r1,#25
        0x080020d2:    d511        ..      BPL      0x80020f8 ; USART2_IRQHandler + 44
        0x080020d4:    6801        .h      LDR      r1,[r0,#0]
        0x080020d6:    f0210140    !.@.    BIC      r1,r1,#0x40
        0x080020da:    6001        .`      STR      r1,[r0,#0]
        0x080020dc:    4809        .H      LDR      r0,[pc,#36] ; [0x8002104] = 0x2000000b
        0x080020de:    7981        .y      LDRB     r1,[r0,#6]
        0x080020e0:    7942        By      LDRB     r2,[r0,#5]
        0x080020e2:    4291        .B      CMP      r1,r2
        0x080020e4:    d009        ..      BEQ      0x80020fa ; USART2_IRQHandler + 46
        0x080020e6:    7981        .y      LDRB     r1,[r0,#6]
        0x080020e8:    4a07        .J      LDR      r2,[pc,#28] ; [0x8002108] = 0x20000470
        0x080020ea:    440a        .D      ADD      r2,r2,r1
        0x080020ec:    1c49        I.      ADDS     r1,r1,#1
        0x080020ee:    7181        .q      STRB     r1,[r0,#6]
        0x080020f0:    4903        .I      LDR      r1,[pc,#12] ; [0x8002100] = 0x40004400
        0x080020f2:    7810        .x      LDRB     r0,[r2,#0]
        0x080020f4:    1d09        ..      ADDS     r1,r1,#4
        0x080020f6:    6008        .`      STR      r0,[r1,#0]
        0x080020f8:    4770        pG      BX       lr
        0x080020fa:    2100        .!      MOVS     r1,#0
        0x080020fc:    71c1        .q      STRB     r1,[r0,#7]
        0x080020fe:    4770        pG      BX       lr
    $d
        0x08002100:    40004400    .D.@    DCD    1073759232
        0x08002104:    2000000b    ...     DCD    536870923
        0x08002108:    20000470    p..     DCD    536872048
    $t
    i.USART3_IRQHandler
    USART3_IRQHandler
        0x0800210c:    480c        .H      LDR      r0,[pc,#48] ; [0x8002140] = 0x40004800
        0x0800210e:    6801        .h      LDR      r1,[r0,#0]
        0x08002110:    0649        I.      LSLS     r1,r1,#25
        0x08002112:    d511        ..      BPL      0x8002138 ; USART3_IRQHandler + 44
        0x08002114:    6801        .h      LDR      r1,[r0,#0]
        0x08002116:    f0210140    !.@.    BIC      r1,r1,#0x40
        0x0800211a:    6001        .`      STR      r1,[r0,#0]
        0x0800211c:    4809        .H      LDR      r0,[pc,#36] ; [0x8002144] = 0x2000000b
        0x0800211e:    7a41        Az      LDRB     r1,[r0,#9]
        0x08002120:    7a02        .z      LDRB     r2,[r0,#8]
        0x08002122:    4291        .B      CMP      r1,r2
        0x08002124:    d009        ..      BEQ      0x800213a ; USART3_IRQHandler + 46
        0x08002126:    7a41        Az      LDRB     r1,[r0,#9]
        0x08002128:    4a07        .J      LDR      r2,[pc,#28] ; [0x8002148] = 0x20000570
        0x0800212a:    440a        .D      ADD      r2,r2,r1
        0x0800212c:    1c49        I.      ADDS     r1,r1,#1
        0x0800212e:    7241        Ar      STRB     r1,[r0,#9]
        0x08002130:    4903        .I      LDR      r1,[pc,#12] ; [0x8002140] = 0x40004800
        0x08002132:    7810        .x      LDRB     r0,[r2,#0]
        0x08002134:    1d09        ..      ADDS     r1,r1,#4
        0x08002136:    6008        .`      STR      r0,[r1,#0]
        0x08002138:    4770        pG      BX       lr
        0x0800213a:    2100        .!      MOVS     r1,#0
        0x0800213c:    7281        .r      STRB     r1,[r0,#0xa]
        0x0800213e:    4770        pG      BX       lr
    $d
        0x08002140:    40004800    .H.@    DCD    1073760256
        0x08002144:    2000000b    ...     DCD    536870923
        0x08002148:    20000570    p..     DCD    536872304
    $t
    i.USBD_ClrClassConfig
    USBD_ClrClassConfig
        0x0800214c:    b510        ..      PUSH     {r4,lr}
        0x0800214e:    f8d022b4    ..."    LDR      r2,[r0,#0x2b4]
        0x08002152:    6852        Rh      LDR      r2,[r2,#4]
        0x08002154:    4790        .G      BLX      r2
        0x08002156:    2000        .       MOVS     r0,#0
        0x08002158:    bd10        ..      POP      {r4,pc}
    i.USBD_CtlContinueRx
    USBD_CtlContinueRx
        0x0800215a:    4613        .F      MOV      r3,r2
        0x0800215c:    b510        ..      PUSH     {r4,lr}
        0x0800215e:    460a        .F      MOV      r2,r1
        0x08002160:    2100        .!      MOVS     r1,#0
        0x08002162:    f000fa73    ..s.    BL       USBD_LL_PrepareReceive ; 0x800264c
        0x08002166:    2000        .       MOVS     r0,#0
        0x08002168:    bd10        ..      POP      {r4,pc}
    i.USBD_CtlContinueSendData
    USBD_CtlContinueSendData
        0x0800216a:    4613        .F      MOV      r3,r2
        0x0800216c:    b510        ..      PUSH     {r4,lr}
        0x0800216e:    460a        .F      MOV      r2,r1
        0x08002170:    2100        .!      MOVS     r1,#0
        0x08002172:    f000fb06    ....    BL       USBD_LL_Transmit ; 0x8002782
        0x08002176:    2000        .       MOVS     r0,#0
        0x08002178:    bd10        ..      POP      {r4,pc}
    i.USBD_CtlError
    USBD_CtlError
        0x0800217a:    b510        ..      PUSH     {r4,lr}
        0x0800217c:    4604        .F      MOV      r4,r0
        0x0800217e:    2180        .!      MOVS     r1,#0x80
        0x08002180:    f000fae4    ....    BL       USBD_LL_StallEP ; 0x800274c
        0x08002184:    4620         F      MOV      r0,r4
        0x08002186:    e8bd4010    ...@    POP      {r4,lr}
        0x0800218a:    2100        .!      MOVS     r1,#0
        0x0800218c:    f000bade    ....    B.W      USBD_LL_StallEP ; 0x800274c
    i.USBD_CtlReceiveStatus
    USBD_CtlReceiveStatus
        0x08002190:    b510        ..      PUSH     {r4,lr}
        0x08002192:    2105        .!      MOVS     r1,#5
        0x08002194:    2300        .#      MOVS     r3,#0
        0x08002196:    f8c01294    ....    STR      r1,[r0,#0x294]
        0x0800219a:    461a        .F      MOV      r2,r3
        0x0800219c:    4619        .F      MOV      r1,r3
        0x0800219e:    f000fa55    ..U.    BL       USBD_LL_PrepareReceive ; 0x800264c
        0x080021a2:    2000        .       MOVS     r0,#0
        0x080021a4:    bd10        ..      POP      {r4,pc}
    i.USBD_CtlSendData
    USBD_CtlSendData
        0x080021a6:    b510        ..      PUSH     {r4,lr}
        0x080021a8:    2302        .#      MOVS     r3,#2
        0x080021aa:    61c2        .a      STR      r2,[r0,#0x1c]
        0x080021ac:    f8c03294    ...2    STR      r3,[r0,#0x294]
        0x080021b0:    6202        .b      STR      r2,[r0,#0x20]
        0x080021b2:    4613        .F      MOV      r3,r2
        0x080021b4:    460a        .F      MOV      r2,r1
        0x080021b6:    2100        .!      MOVS     r1,#0
        0x080021b8:    f000fae3    ....    BL       USBD_LL_Transmit ; 0x8002782
        0x080021bc:    2000        .       MOVS     r0,#0
        0x080021be:    bd10        ..      POP      {r4,pc}
    i.USBD_CtlSendStatus
    USBD_CtlSendStatus
        0x080021c0:    b510        ..      PUSH     {r4,lr}
        0x080021c2:    2104        .!      MOVS     r1,#4
        0x080021c4:    2300        .#      MOVS     r3,#0
        0x080021c6:    f8c01294    ....    STR      r1,[r0,#0x294]
        0x080021ca:    461a        .F      MOV      r2,r3
        0x080021cc:    4619        .F      MOV      r1,r3
        0x080021ce:    f000fad8    ....    BL       USBD_LL_Transmit ; 0x8002782
        0x080021d2:    2000        .       MOVS     r0,#0
        0x080021d4:    bd10        ..      POP      {r4,pc}
        0x080021d6:    0000        ..      MOVS     r0,r0
    i.USBD_FS_ConfigStrDescriptor
    USBD_FS_ConfigStrDescriptor
        0x080021d8:    b510        ..      PUSH     {r4,lr}
        0x080021da:    460a        .F      MOV      r2,r1
        0x080021dc:    4902        .I      LDR      r1,[pc,#8] ; [0x80021e8] = 0x20000a00
        0x080021de:    a003        ..      ADR      r0,{pc}+0xe ; 0x80021ec
        0x080021e0:    f000f8e2    ....    BL       USBD_GetString ; 0x80023a8
        0x080021e4:    4800        .H      LDR      r0,[pc,#0] ; [0x80021e8] = 0x20000a00
        0x080021e6:    bd10        ..      POP      {r4,pc}
    $d
        0x080021e8:    20000a00    ...     DCD    536873472
        0x080021ec:    4944494d    MIDI    DCD    1229211981
        0x080021f0:    6e6f4320     Con    DCD    1852785440
        0x080021f4:    00676966    fig.    DCD    6777190
    $t
    i.USBD_FS_DeviceDescriptor
    USBD_FS_DeviceDescriptor
        0x080021f8:    2012        .       MOVS     r0,#0x12
        0x080021fa:    8008        ..      STRH     r0,[r1,#0]
        0x080021fc:    4800        .H      LDR      r0,[pc,#0] ; [0x8002200] = 0x20000038
        0x080021fe:    4770        pG      BX       lr
    $d
        0x08002200:    20000038    8..     DCD    536870968
    $t
    i.USBD_FS_InterfaceStrDescriptor
    USBD_FS_InterfaceStrDescriptor
        0x08002204:    b510        ..      PUSH     {r4,lr}
        0x08002206:    460a        .F      MOV      r2,r1
        0x08002208:    4902        .I      LDR      r1,[pc,#8] ; [0x8002214] = 0x20000a00
        0x0800220a:    a003        ..      ADR      r0,{pc}+0xe ; 0x8002218
        0x0800220c:    f000f8cc    ....    BL       USBD_GetString ; 0x80023a8
        0x08002210:    4800        .H      LDR      r0,[pc,#0] ; [0x8002214] = 0x20000a00
        0x08002212:    bd10        ..      POP      {r4,pc}
    $d
        0x08002214:    20000a00    ...     DCD    536873472
        0x08002218:    4944494d    MIDI    DCD    1229211981
        0x0800221c:    746e4920     Int    DCD    1953384736
        0x08002220:    61667265    erfa    DCD    1634103909
        0x08002224:    00006563    ce..    DCD    25955
    $t
    i.USBD_FS_LangIDStrDescriptor
    USBD_FS_LangIDStrDescriptor
        0x08002228:    2004        .       MOVS     r0,#4
        0x0800222a:    8008        ..      STRH     r0,[r1,#0]
        0x0800222c:    4800        .H      LDR      r0,[pc,#0] ; [0x8002230] = 0x20000034
        0x0800222e:    4770        pG      BX       lr
    $d
        0x08002230:    20000034    4..     DCD    536870964
    $t
    i.USBD_FS_ManufacturerStrDescriptor
    USBD_FS_ManufacturerStrDescriptor
        0x08002234:    b510        ..      PUSH     {r4,lr}
        0x08002236:    460a        .F      MOV      r2,r1
        0x08002238:    4902        .I      LDR      r1,[pc,#8] ; [0x8002244] = 0x20000a00
        0x0800223a:    a003        ..      ADR      r0,{pc}+0xe ; 0x8002248
        0x0800223c:    f000f8b4    ....    BL       USBD_GetString ; 0x80023a8
        0x08002240:    4800        .H      LDR      r0,[pc,#0] ; [0x8002244] = 0x20000a00
        0x08002242:    bd10        ..      POP      {r4,pc}
    $d
        0x08002244:    20000a00    ...     DCD    536873472
        0x08002248:    694d5453    STMi    DCD    1766675539
        0x0800224c:    656f7263    croe    DCD    1701802595
        0x08002250:    7463656c    lect    DCD    1952671084
        0x08002254:    696e6f72    roni    DCD    1768845170
        0x08002258:    00007363    cs..    DCD    29539
    $t
    i.USBD_FS_ProductStrDescriptor
    USBD_FS_ProductStrDescriptor
        0x0800225c:    b510        ..      PUSH     {r4,lr}
        0x0800225e:    460a        .F      MOV      r2,r1
        0x08002260:    4902        .I      LDR      r1,[pc,#8] ; [0x800226c] = 0x20000a00
        0x08002262:    a003        ..      ADR      r0,{pc}+0xe ; 0x8002270
        0x08002264:    f000f8a0    ....    BL       USBD_GetString ; 0x80023a8
        0x08002268:    4800        .H      LDR      r0,[pc,#0] ; [0x800226c] = 0x20000a00
        0x0800226a:    bd10        ..      POP      {r4,pc}
    $d
        0x0800226c:    20000a00    ...     DCD    536873472
        0x08002270:    334d5453    STM3    DCD    860705875
        0x08002274:    494d2032    2 MI    DCD    1229791282
        0x08002278:    69204944    DI i    DCD    1763723588
        0x0800227c:    7265746e    nter    DCD    1919251566
        0x08002280:    65636166    face    DCD    1701011814
        0x08002284:    00000000    ....    DCD    0
    $t
    i.USBD_FS_SerialStrDescriptor
    USBD_FS_SerialStrDescriptor
        0x08002288:    b510        ..      PUSH     {r4,lr}
        0x0800228a:    201a        .       MOVS     r0,#0x1a
        0x0800228c:    8008        ..      STRH     r0,[r1,#0]
        0x0800228e:    480a        .H      LDR      r0,[pc,#40] ; [0x80022b8] = 0x1ffff7e8
        0x08002290:    6801        .h      LDR      r1,[r0,#0]
        0x08002292:    1d00        ..      ADDS     r0,r0,#4
        0x08002294:    6804        .h      LDR      r4,[r0,#0]
        0x08002296:    1d00        ..      ADDS     r0,r0,#4
        0x08002298:    6800        .h      LDR      r0,[r0,#0]
        0x0800229a:    1808        ..      ADDS     r0,r1,r0
        0x0800229c:    d009        ..      BEQ      0x80022b2 ; USBD_FS_SerialStrDescriptor + 42
        0x0800229e:    2208        ."      MOVS     r2,#8
        0x080022a0:    4906        .I      LDR      r1,[pc,#24] ; [0x80022bc] = 0x2000004e
        0x080022a2:    f7fffa7b    ..{.    BL       IntToUnicode ; 0x800179c
        0x080022a6:    4905        .I      LDR      r1,[pc,#20] ; [0x80022bc] = 0x2000004e
        0x080022a8:    2204        ."      MOVS     r2,#4
        0x080022aa:    3110        .1      ADDS     r1,r1,#0x10
        0x080022ac:    4620         F      MOV      r0,r4
        0x080022ae:    f7fffa75    ..u.    BL       IntToUnicode ; 0x800179c
        0x080022b2:    4802        .H      LDR      r0,[pc,#8] ; [0x80022bc] = 0x2000004e
        0x080022b4:    1e80        ..      SUBS     r0,r0,#2
        0x080022b6:    bd10        ..      POP      {r4,pc}
    $d
        0x080022b8:    1ffff7e8    ....    DCD    536868840
        0x080022bc:    2000004e    N..     DCD    536870990
    $t
    i.USBD_GetDescriptor
    USBD_GetDescriptor
        0x080022c0:    b5f8        ..      PUSH     {r3-r7,lr}
        0x080022c2:    4604        .F      MOV      r4,r0
        0x080022c4:    2000        .       MOVS     r0,#0
        0x080022c6:    f8ad0000    ....    STRH     r0,[sp,#0]
        0x080022ca:    8848        H.      LDRH     r0,[r1,#2]
        0x080022cc:    460d        .F      MOV      r5,r1
        0x080022ce:    0a01        ..      LSRS     r1,r0,#8
        0x080022d0:    2908        .)      CMP      r1,#8
        0x080022d2:    d248        H.      BCS      0x8002366 ; USBD_GetDescriptor + 166
        0x080022d4:    e8dff001    ....    TBB      [pc,r1]
    $d
        0x080022d8:    17090447    G...    DCD    386466887
        0x080022dc:    453c4747    GG<E    DCD    1161578311
    $t
        0x080022e0:    f8d412b0    ....    LDR      r1,[r4,#0x2b0]
        0x080022e4:    7c20         |      LDRB     r0,[r4,#0x10]
        0x080022e6:    680a        .h      LDR      r2,[r1,#0]
        0x080022e8:    e019        ..      B        0x800231e ; USBD_GetDescriptor + 94
        0x080022ea:    7c20         |      LDRB     r0,[r4,#0x10]
        0x080022ec:    2602        .&      MOVS     r6,#2
        0x080022ee:    2800        .(      CMP      r0,#0
        0x080022f0:    f8d402b4    ....    LDR      r0,[r4,#0x2b4]
        0x080022f4:    d005        ..      BEQ      0x8002302 ; USBD_GetDescriptor + 66
        0x080022f6:    6ac1        .j      LDR      r1,[r0,#0x2c]
        0x080022f8:    4668        hF      MOV      r0,sp
        0x080022fa:    4788        .G      BLX      r1
        0x080022fc:    4601        .F      MOV      r1,r0
        0x080022fe:    7046        Fp      STRB     r6,[r0,#1]
        0x08002300:    e03e        >.      B        0x8002380 ; USBD_GetDescriptor + 192
        0x08002302:    6a81        .j      LDR      r1,[r0,#0x28]
        0x08002304:    e7f8        ..      B        0x80022f8 ; USBD_GetDescriptor + 56
        0x08002306:    b2c0        ..      UXTB     r0,r0
        0x08002308:    2806        .(      CMP      r0,#6
        0x0800230a:    d22c        ,.      BCS      0x8002366 ; USBD_GetDescriptor + 166
        0x0800230c:    e8dff000    ....    TBB      [pc,r0]
    $d
        0x08002310:    14100a03    ....    DCD    336595459
        0x08002314:    1c18        ..      DCW    7192
    $t
        0x08002316:    f8d402b0    ....    LDR      r0,[r4,#0x2b0]
        0x0800231a:    6842        Bh      LDR      r2,[r0,#4]
        0x0800231c:    e005        ..      B        0x800232a ; USBD_GetDescriptor + 106
        0x0800231e:    4669        iF      MOV      r1,sp
        0x08002320:    4790        .G      BLX      r2
        0x08002322:    e01c        ..      B        0x800235e ; USBD_GetDescriptor + 158
        0x08002324:    f8d402b0    ....    LDR      r0,[r4,#0x2b0]
        0x08002328:    6882        .h      LDR      r2,[r0,#8]
        0x0800232a:    b1e2        ..      CBZ      r2,0x8002366 ; USBD_GetDescriptor + 166
        0x0800232c:    7c20         |      LDRB     r0,[r4,#0x10]
        0x0800232e:    e7f6        ..      B        0x800231e ; USBD_GetDescriptor + 94
        0x08002330:    f8d402b0    ....    LDR      r0,[r4,#0x2b0]
        0x08002334:    68c2        .h      LDR      r2,[r0,#0xc]
        0x08002336:    e7f8        ..      B        0x800232a ; USBD_GetDescriptor + 106
        0x08002338:    f8d402b0    ....    LDR      r0,[r4,#0x2b0]
        0x0800233c:    6902        .i      LDR      r2,[r0,#0x10]
        0x0800233e:    e7f4        ..      B        0x800232a ; USBD_GetDescriptor + 106
        0x08002340:    f8d402b0    ....    LDR      r0,[r4,#0x2b0]
        0x08002344:    6942        Bi      LDR      r2,[r0,#0x14]
        0x08002346:    e7f0        ..      B        0x800232a ; USBD_GetDescriptor + 106
        0x08002348:    f8d402b0    ....    LDR      r0,[r4,#0x2b0]
        0x0800234c:    6982        .i      LDR      r2,[r0,#0x18]
        0x0800234e:    e7ec        ..      B        0x800232a ; USBD_GetDescriptor + 106
        0x08002350:    7c20         |      LDRB     r0,[r4,#0x10]
        0x08002352:    b940        @.      CBNZ     r0,0x8002366 ; USBD_GetDescriptor + 166
        0x08002354:    f8d402b4    ....    LDR      r0,[r4,#0x2b4]
        0x08002358:    6b41        Ak      LDR      r1,[r0,#0x34]
        0x0800235a:    4668        hF      MOV      r0,sp
        0x0800235c:    4788        .G      BLX      r1
        0x0800235e:    4601        .F      MOV      r1,r0
        0x08002360:    e00e        ..      B        0x8002380 ; USBD_GetDescriptor + 192
        0x08002362:    7c20         |      LDRB     r0,[r4,#0x10]
        0x08002364:    b120         .      CBZ      r0,0x8002370 ; USBD_GetDescriptor + 176
        0x08002366:    4629        )F      MOV      r1,r5
        0x08002368:    4620         F      MOV      r0,r4
        0x0800236a:    f7ffff06    ....    BL       USBD_CtlError ; 0x800217a
        0x0800236e:    bdf8        ..      POP      {r3-r7,pc}
        0x08002370:    f8d402b4    ....    LDR      r0,[r4,#0x2b4]
        0x08002374:    6b01        .k      LDR      r1,[r0,#0x30]
        0x08002376:    4668        hF      MOV      r0,sp
        0x08002378:    4788        .G      BLX      r1
        0x0800237a:    4601        .F      MOV      r1,r0
        0x0800237c:    2007        .       MOVS     r0,#7
        0x0800237e:    7048        Hp      STRB     r0,[r1,#1]
        0x08002380:    f8bd0000    ....    LDRH     r0,[sp,#0]
        0x08002384:    b148        H.      CBZ      r0,0x800239a ; USBD_GetDescriptor + 218
        0x08002386:    88ea        ..      LDRH     r2,[r5,#6]
        0x08002388:    b152        R.      CBZ      r2,0x80023a0 ; USBD_GetDescriptor + 224
        0x0800238a:    4282        .B      CMP      r2,r0
        0x0800238c:    d900        ..      BLS      0x8002390 ; USBD_GetDescriptor + 208
        0x0800238e:    4602        .F      MOV      r2,r0
        0x08002390:    f8ad2000    ...     STRH     r2,[sp,#0]
        0x08002394:    4620         F      MOV      r0,r4
        0x08002396:    f7ffff06    ....    BL       USBD_CtlSendData ; 0x80021a6
        0x0800239a:    88e8        ..      LDRH     r0,[r5,#6]
        0x0800239c:    2800        .(      CMP      r0,#0
        0x0800239e:    d1e6        ..      BNE      0x800236e ; USBD_GetDescriptor + 174
        0x080023a0:    4620         F      MOV      r0,r4
        0x080023a2:    f7ffff0d    ....    BL       USBD_CtlSendStatus ; 0x80021c0
        0x080023a6:    bdf8        ..      POP      {r3-r7,pc}
    i.USBD_GetString
    USBD_GetString
        0x080023a8:    b570        p.      PUSH     {r4-r6,lr}
        0x080023aa:    2300        .#      MOVS     r3,#0
        0x080023ac:    2800        .(      CMP      r0,#0
        0x080023ae:    d01e        ..      BEQ      0x80023ee ; USBD_GetString + 70
        0x080023b0:    4604        .F      MOV      r4,r0
        0x080023b2:    2500        .%      MOVS     r5,#0
        0x080023b4:    e002        ..      B        0x80023bc ; USBD_GetString + 20
        0x080023b6:    1c6d        m.      ADDS     r5,r5,#1
        0x080023b8:    b2ed        ..      UXTB     r5,r5
        0x080023ba:    1c64        d.      ADDS     r4,r4,#1
        0x080023bc:    7826        &x      LDRB     r6,[r4,#0]
        0x080023be:    2e00        ..      CMP      r6,#0
        0x080023c0:    d1f9        ..      BNE      0x80023b6 ; USBD_GetString + 14
        0x080023c2:    2402        .$      MOVS     r4,#2
        0x080023c4:    eb040445    ..E.    ADD      r4,r4,r5,LSL #1
        0x080023c8:    8014        ..      STRH     r4,[r2,#0]
        0x080023ca:    7812        .x      LDRB     r2,[r2,#0]
        0x080023cc:    54ca        .T      STRB     r2,[r1,r3]
        0x080023ce:    1c5b        [.      ADDS     r3,r3,#1
        0x080023d0:    2203        ."      MOVS     r2,#3
        0x080023d2:    54ca        .T      STRB     r2,[r1,r3]
        0x080023d4:    2400        .$      MOVS     r4,#0
        0x080023d6:    1c5b        [.      ADDS     r3,r3,#1
        0x080023d8:    e006        ..      B        0x80023e8 ; USBD_GetString + 64
        0x080023da:    54ca        .T      STRB     r2,[r1,r3]
        0x080023dc:    1c5b        [.      ADDS     r3,r3,#1
        0x080023de:    b2da        ..      UXTB     r2,r3
        0x080023e0:    548c        .T      STRB     r4,[r1,r2]
        0x080023e2:    1c52        R.      ADDS     r2,r2,#1
        0x080023e4:    b2d3        ..      UXTB     r3,r2
        0x080023e6:    1c40        @.      ADDS     r0,r0,#1
        0x080023e8:    7802        .x      LDRB     r2,[r0,#0]
        0x080023ea:    2a00        .*      CMP      r2,#0
        0x080023ec:    d1f5        ..      BNE      0x80023da ; USBD_GetString + 50
        0x080023ee:    bd70        p.      POP      {r4-r6,pc}
    i.USBD_Get_USB_Status
    USBD_Get_USB_Status
        0x080023f0:    0001        ..      MOVS     r1,r0
        0x080023f2:    f04f0000    O...    MOV      r0,#0
        0x080023f6:    d004        ..      BEQ      0x8002402 ; USBD_Get_USB_Status + 18
        0x080023f8:    2901        .)      CMP      r1,#1
        0x080023fa:    d001        ..      BEQ      0x8002400 ; USBD_Get_USB_Status + 16
        0x080023fc:    2902        .)      CMP      r1,#2
        0x080023fe:    d001        ..      BEQ      0x8002404 ; USBD_Get_USB_Status + 20
        0x08002400:    2002        .       MOVS     r0,#2
        0x08002402:    4770        pG      BX       lr
        0x08002404:    2001        .       MOVS     r0,#1
        0x08002406:    4770        pG      BX       lr
    i.USBD_Init
    USBD_Init
        0x08002408:    b510        ..      PUSH     {r4,lr}
        0x0800240a:    b180        ..      CBZ      r0,0x800242e ; USBD_Init + 38
        0x0800240c:    f8d032b4    ...2    LDR      r3,[r0,#0x2b4]
        0x08002410:    b113        ..      CBZ      r3,0x8002418 ; USBD_Init + 16
        0x08002412:    2300        .#      MOVS     r3,#0
        0x08002414:    f8c032b4    ...2    STR      r3,[r0,#0x2b4]
        0x08002418:    b109        ..      CBZ      r1,0x800241e ; USBD_Init + 22
        0x0800241a:    f8c012b0    ....    STR      r1,[r0,#0x2b0]
        0x0800241e:    2101        .!      MOVS     r1,#1
        0x08002420:    f880129c    ....    STRB     r1,[r0,#0x29c]
        0x08002424:    7002        .p      STRB     r2,[r0,#0]
        0x08002426:    f000f8bb    ....    BL       USBD_LL_Init ; 0x80025a0
        0x0800242a:    2000        .       MOVS     r0,#0
        0x0800242c:    bd10        ..      POP      {r4,pc}
        0x0800242e:    2002        .       MOVS     r0,#2
        0x08002430:    bd10        ..      POP      {r4,pc}
    i.USBD_LL_ClearStallEP
    USBD_LL_ClearStallEP
        0x08002432:    b510        ..      PUSH     {r4,lr}
        0x08002434:    f8d002c0    ....    LDR      r0,[r0,#0x2c0]
        0x08002438:    f7fef966    ..f.    BL       HAL_PCD_EP_ClrStall ; 0x8000708
        0x0800243c:    e8bd4010    ...@    POP      {r4,lr}
        0x08002440:    f7ffbfd6    ....    B.W      USBD_Get_USB_Status ; 0x80023f0
    i.USBD_LL_CloseEP
    USBD_LL_CloseEP
        0x08002444:    b510        ..      PUSH     {r4,lr}
        0x08002446:    f8d002c0    ....    LDR      r0,[r0,#0x2c0]
        0x0800244a:    f7fef937    ..7.    BL       HAL_PCD_EP_Close ; 0x80006bc
        0x0800244e:    e8bd4010    ...@    POP      {r4,lr}
        0x08002452:    f7ffbfcd    ....    B.W      USBD_Get_USB_Status ; 0x80023f0
    i.USBD_LL_DataInStage
    USBD_LL_DataInStage
        0x08002456:    e92d41f0    -..A    PUSH     {r4-r8,lr}
        0x0800245a:    4617        .F      MOV      r7,r2
        0x0800245c:    4604        .F      MOV      r4,r0
        0x0800245e:    b151        Q.      CBZ      r1,0x8002476 ; USBD_LL_DataInStage + 32
        0x08002460:    f8d402b4    ....    LDR      r0,[r4,#0x2b4]
        0x08002464:    6942        Bi      LDR      r2,[r0,#0x14]
        0x08002466:    b11a        ..      CBZ      r2,0x8002470 ; USBD_LL_DataInStage + 26
        0x08002468:    f894029c    ....    LDRB     r0,[r4,#0x29c]
        0x0800246c:    2803        .(      CMP      r0,#3
        0x0800246e:    d051        Q.      BEQ      0x8002514 ; USBD_LL_DataInStage + 190
        0x08002470:    2002        .       MOVS     r0,#2
        0x08002472:    e8bd81f0    ....    POP      {r4-r8,pc}
        0x08002476:    f8d43294    ...2    LDR      r3,[r4,#0x294]
        0x0800247a:    2500        .%      MOVS     r5,#0
        0x0800247c:    f1040014    ....    ADD      r0,r4,#0x14
        0x08002480:    2b02        .+      CMP      r3,#2
        0x08002482:    d003        ..      BEQ      0x800248c ; USBD_LL_DataInStage + 54
        0x08002484:    2b04        .+      CMP      r3,#4
        0x08002486:    d03a        :.      BEQ      0x80024fe ; USBD_LL_DataInStage + 168
        0x08002488:    b3c3        ..      CBZ      r3,0x80024fc ; USBD_LL_DataInStage + 166
        0x0800248a:    e03c        <.      B        0x8002506 ; USBD_LL_DataInStage + 176
        0x0800248c:    e9d06303    ...c    LDRD     r6,r3,[r0,#0xc]
        0x08002490:    429e        .B      CMP      r6,r3
        0x08002492:    d907        ..      BLS      0x80024a4 ; USBD_LL_DataInStage + 78
        0x08002494:    1af1        ..      SUBS     r1,r6,r3
        0x08002496:    60c1        .`      STR      r1,[r0,#0xc]
        0x08002498:    b28a        ..      UXTH     r2,r1
        0x0800249a:    4639        9F      MOV      r1,r7
        0x0800249c:    4620         F      MOV      r0,r4
        0x0800249e:    f7fffe64    ..d.    BL       USBD_CtlContinueSendData ; 0x800216a
        0x080024a2:    e012        ..      B        0x80024ca ; USBD_LL_DataInStage + 116
        0x080024a4:    6880        .h      LDR      r0,[r0,#8]
        0x080024a6:    fbb0f1f3    ....    UDIV     r1,r0,r3
        0x080024aa:    fb030111    ....    MLS      r1,r3,r1,r0
        0x080024ae:    b999        ..      CBNZ     r1,0x80024d8 ; USBD_LL_DataInStage + 130
        0x080024b0:    4298        .B      CMP      r0,r3
        0x080024b2:    d311        ..      BCC      0x80024d8 ; USBD_LL_DataInStage + 130
        0x080024b4:    f8d41298    ....    LDR      r1,[r4,#0x298]
        0x080024b8:    4288        .B      CMP      r0,r1
        0x080024ba:    d20d        ..      BCS      0x80024d8 ; USBD_LL_DataInStage + 130
        0x080024bc:    2200        ."      MOVS     r2,#0
        0x080024be:    4611        .F      MOV      r1,r2
        0x080024c0:    4620         F      MOV      r0,r4
        0x080024c2:    f7fffe52    ..R.    BL       USBD_CtlContinueSendData ; 0x800216a
        0x080024c6:    f8c45298    ...R    STR      r5,[r4,#0x298]
        0x080024ca:    2300        .#      MOVS     r3,#0
        0x080024cc:    461a        .F      MOV      r2,r3
        0x080024ce:    4619        .F      MOV      r1,r3
        0x080024d0:    4620         F      MOV      r0,r4
        0x080024d2:    f000f8bb    ....    BL       USBD_LL_PrepareReceive ; 0x800264c
        0x080024d6:    e016        ..      B        0x8002506 ; USBD_LL_DataInStage + 176
        0x080024d8:    f8d402b4    ....    LDR      r0,[r4,#0x2b4]
        0x080024dc:    68c1        .h      LDR      r1,[r0,#0xc]
        0x080024de:    b129        ).      CBZ      r1,0x80024ec ; USBD_LL_DataInStage + 150
        0x080024e0:    f894029c    ....    LDRB     r0,[r4,#0x29c]
        0x080024e4:    2803        .(      CMP      r0,#3
        0x080024e6:    d101        ..      BNE      0x80024ec ; USBD_LL_DataInStage + 150
        0x080024e8:    4620         F      MOV      r0,r4
        0x080024ea:    4788        .G      BLX      r1
        0x080024ec:    2180        .!      MOVS     r1,#0x80
        0x080024ee:    4620         F      MOV      r0,r4
        0x080024f0:    f000f92c    ..,.    BL       USBD_LL_StallEP ; 0x800274c
        0x080024f4:    4620         F      MOV      r0,r4
        0x080024f6:    f7fffe4b    ..K.    BL       USBD_CtlReceiveStatus ; 0x8002190
        0x080024fa:    e004        ..      B        0x8002506 ; USBD_LL_DataInStage + 176
        0x080024fc:    e7ff        ..      B        0x80024fe ; USBD_LL_DataInStage + 168
        0x080024fe:    2180        .!      MOVS     r1,#0x80
        0x08002500:    4620         F      MOV      r0,r4
        0x08002502:    f000f923    ..#.    BL       USBD_LL_StallEP ; 0x800274c
        0x08002506:    f89402a0    ....    LDRB     r0,[r4,#0x2a0]
        0x0800250a:    2801        .(      CMP      r0,#1
        0x0800250c:    d104        ..      BNE      0x8002518 ; USBD_LL_DataInStage + 194
        0x0800250e:    f88452a0    ...R    STRB     r5,[r4,#0x2a0]
        0x08002512:    e001        ..      B        0x8002518 ; USBD_LL_DataInStage + 194
        0x08002514:    4620         F      MOV      r0,r4
        0x08002516:    4790        .G      BLX      r2
        0x08002518:    2000        .       MOVS     r0,#0
        0x0800251a:    e7aa        ..      B        0x8002472 ; USBD_LL_DataInStage + 28
    i.USBD_LL_DataOutStage
    USBD_LL_DataOutStage
        0x0800251c:    b570        p.      PUSH     {r4-r6,lr}
        0x0800251e:    4615        .F      MOV      r5,r2
        0x08002520:    4604        .F      MOV      r4,r0
        0x08002522:    b149        I.      CBZ      r1,0x8002538 ; USBD_LL_DataOutStage + 28
        0x08002524:    f8d402b4    ....    LDR      r0,[r4,#0x2b4]
        0x08002528:    6982        .i      LDR      r2,[r0,#0x18]
        0x0800252a:    b11a        ..      CBZ      r2,0x8002534 ; USBD_LL_DataOutStage + 24
        0x0800252c:    f894029c    ....    LDRB     r0,[r4,#0x29c]
        0x08002530:    2803        .(      CMP      r0,#3
        0x08002532:    d030        0.      BEQ      0x8002596 ; USBD_LL_DataOutStage + 122
        0x08002534:    2002        .       MOVS     r0,#2
        0x08002536:    bd70        p.      POP      {r4-r6,pc}
        0x08002538:    f8d41294    ....    LDR      r1,[r4,#0x294]
        0x0800253c:    f50470aa    ...p    ADD      r0,r4,#0x154
        0x08002540:    2903        .)      CMP      r1,#3
        0x08002542:    d002        ..      BEQ      0x800254a ; USBD_LL_DataOutStage + 46
        0x08002544:    2905        .)      CMP      r1,#5
        0x08002546:    d01e        ..      BEQ      0x8002586 ; USBD_LL_DataOutStage + 106
        0x08002548:    e027        '.      B        0x800259a ; USBD_LL_DataOutStage + 126
        0x0800254a:    e9d02103    ...!    LDRD     r2,r1,[r0,#0xc]
        0x0800254e:    428a        .B      CMP      r2,r1
        0x08002550:    d90b        ..      BLS      0x800256a ; USBD_LL_DataOutStage + 78
        0x08002552:    1a53        S.      SUBS     r3,r2,r1
        0x08002554:    60c3        .`      STR      r3,[r0,#0xc]
        0x08002556:    4608        .F      MOV      r0,r1
        0x08002558:    4283        .B      CMP      r3,r0
        0x0800255a:    d300        ..      BCC      0x800255e ; USBD_LL_DataOutStage + 66
        0x0800255c:    4603        .F      MOV      r3,r0
        0x0800255e:    b29a        ..      UXTH     r2,r3
        0x08002560:    4629        )F      MOV      r1,r5
        0x08002562:    4620         F      MOV      r0,r4
        0x08002564:    f7fffdf9    ....    BL       USBD_CtlContinueRx ; 0x800215a
        0x08002568:    e017        ..      B        0x800259a ; USBD_LL_DataOutStage + 126
        0x0800256a:    f8d402b4    ....    LDR      r0,[r4,#0x2b4]
        0x0800256e:    6901        .i      LDR      r1,[r0,#0x10]
        0x08002570:    b129        ).      CBZ      r1,0x800257e ; USBD_LL_DataOutStage + 98
        0x08002572:    f894029c    ....    LDRB     r0,[r4,#0x29c]
        0x08002576:    2803        .(      CMP      r0,#3
        0x08002578:    d101        ..      BNE      0x800257e ; USBD_LL_DataOutStage + 98
        0x0800257a:    4620         F      MOV      r0,r4
        0x0800257c:    4788        .G      BLX      r1
        0x0800257e:    4620         F      MOV      r0,r4
        0x08002580:    f7fffe1e    ....    BL       USBD_CtlSendStatus ; 0x80021c0
        0x08002584:    e009        ..      B        0x800259a ; USBD_LL_DataOutStage + 126
        0x08002586:    2000        .       MOVS     r0,#0
        0x08002588:    4601        .F      MOV      r1,r0
        0x0800258a:    f8c40294    ....    STR      r0,[r4,#0x294]
        0x0800258e:    4620         F      MOV      r0,r4
        0x08002590:    f000f8dc    ....    BL       USBD_LL_StallEP ; 0x800274c
        0x08002594:    e001        ..      B        0x800259a ; USBD_LL_DataOutStage + 126
        0x08002596:    4620         F      MOV      r0,r4
        0x08002598:    4790        .G      BLX      r2
        0x0800259a:    2000        .       MOVS     r0,#0
        0x0800259c:    bd70        p.      POP      {r4-r6,pc}
        0x0800259e:    0000        ..      MOVS     r0,r0
    i.USBD_LL_Init
    USBD_LL_Init
        0x080025a0:    b510        ..      PUSH     {r4,lr}
        0x080025a2:    491a        .I      LDR      r1,[pc,#104] ; [0x800260c] = 0x20000c14
        0x080025a4:    4604        .F      MOV      r4,r0
        0x080025a6:    f8c102e8    ....    STR      r0,[r1,#0x2e8]
        0x080025aa:    f8c012c0    ....    STR      r1,[r0,#0x2c0]
        0x080025ae:    4818        .H      LDR      r0,[pc,#96] ; [0x8002610] = 0x40005c00
        0x080025b0:    6008        .`      STR      r0,[r1,#0]
        0x080025b2:    2008        .       MOVS     r0,#8
        0x080025b4:    6048        H`      STR      r0,[r1,#4]
        0x080025b6:    2002        .       MOVS     r0,#2
        0x080025b8:    6088        .`      STR      r0,[r1,#8]
        0x080025ba:    2000        .       MOVS     r0,#0
        0x080025bc:    6188        .a      STR      r0,[r1,#0x18]
        0x080025be:    61c8        .a      STR      r0,[r1,#0x1c]
        0x080025c0:    6208        .b      STR      r0,[r1,#0x20]
        0x080025c2:    4608        .F      MOV      r0,r1
        0x080025c4:    f7fefc28    ..(.    BL       HAL_PCD_Init ; 0x8000e18
        0x080025c8:    b108        ..      CBZ      r0,0x80025ce ; USBD_LL_Init + 46
        0x080025ca:    f7fdfeb4    ....    BL       Error_Handler ; 0x8000336
        0x080025ce:    2200        ."      MOVS     r2,#0
        0x080025d0:    f8d402c0    ....    LDR      r0,[r4,#0x2c0]
        0x080025d4:    2318        .#      MOVS     r3,#0x18
        0x080025d6:    4611        .F      MOV      r1,r2
        0x080025d8:    f5047430    ..0t    ADD      r4,r4,#0x2c0
        0x080025dc:    f7fef83c    ..<.    BL       HAL_PCDEx_PMAConfig ; 0x8000658
        0x080025e0:    2358        X#      MOVS     r3,#0x58
        0x080025e2:    2200        ."      MOVS     r2,#0
        0x080025e4:    2180        .!      MOVS     r1,#0x80
        0x080025e6:    6820         h      LDR      r0,[r4,#0]
        0x080025e8:    f7fef836    ..6.    BL       HAL_PCDEx_PMAConfig ; 0x8000658
        0x080025ec:    23c0        .#      MOVS     r3,#0xc0
        0x080025ee:    2200        ."      MOVS     r2,#0
        0x080025f0:    2101        .!      MOVS     r1,#1
        0x080025f2:    6820         h      LDR      r0,[r4,#0]
        0x080025f4:    f7fef830    ..0.    BL       HAL_PCDEx_PMAConfig ; 0x8000658
        0x080025f8:    f44f7380    O..s    MOV      r3,#0x100
        0x080025fc:    2200        ."      MOVS     r2,#0
        0x080025fe:    2181        .!      MOVS     r1,#0x81
        0x08002600:    6820         h      LDR      r0,[r4,#0]
        0x08002602:    f7fef829    ..).    BL       HAL_PCDEx_PMAConfig ; 0x8000658
        0x08002606:    2000        .       MOVS     r0,#0
        0x08002608:    bd10        ..      POP      {r4,pc}
    $d
        0x0800260a:    0000        ..      DCW    0
        0x0800260c:    20000c14    ...     DCD    536874004
        0x08002610:    40005c00    .\.@    DCD    1073765376
    $t
    i.USBD_LL_IsStallEP
    USBD_LL_IsStallEP
        0x08002614:    060a        ..      LSLS     r2,r1,#24
        0x08002616:    f001017f    ....    AND      r1,r1,#0x7f
        0x0800261a:    f8d002c0    ....    LDR      r0,[r0,#0x2c0]
        0x0800261e:    eb010181    ....    ADD      r1,r1,r1,LSL #2
        0x08002622:    eb0000c1    ....    ADD      r0,r0,r1,LSL #3
        0x08002626:    d502        ..      BPL      0x800262e ; USBD_LL_IsStallEP + 26
        0x08002628:    f890002a    ..*.    LDRB     r0,[r0,#0x2a]
        0x0800262c:    4770        pG      BX       lr
        0x0800262e:    f890016a    ..j.    LDRB     r0,[r0,#0x16a]
        0x08002632:    4770        pG      BX       lr
    i.USBD_LL_OpenEP
    USBD_LL_OpenEP
        0x08002634:    b510        ..      PUSH     {r4,lr}
        0x08002636:    461c        .F      MOV      r4,r3
        0x08002638:    4613        .F      MOV      r3,r2
        0x0800263a:    f8d002c0    ....    LDR      r0,[r0,#0x2c0]
        0x0800263e:    4622        "F      MOV      r2,r4
        0x08002640:    f7fefaa4    ....    BL       HAL_PCD_EP_Open ; 0x8000b8c
        0x08002644:    e8bd4010    ...@    POP      {r4,lr}
        0x08002648:    f7ffbed2    ....    B.W      USBD_Get_USB_Status ; 0x80023f0
    i.USBD_LL_PrepareReceive
    USBD_LL_PrepareReceive
        0x0800264c:    b510        ..      PUSH     {r4,lr}
        0x0800264e:    f8d002c0    ....    LDR      r0,[r0,#0x2c0]
        0x08002652:    f7fefacb    ....    BL       HAL_PCD_EP_Receive ; 0x8000bec
        0x08002656:    e8bd4010    ...@    POP      {r4,lr}
        0x0800265a:    f7ffbec9    ....    B.W      USBD_Get_USB_Status ; 0x80023f0
    i.USBD_LL_Reset
    USBD_LL_Reset
        0x0800265e:    b570        p.      PUSH     {r4-r6,lr}
        0x08002660:    2200        ."      MOVS     r2,#0
        0x08002662:    4604        .F      MOV      r4,r0
        0x08002664:    2340        @#      MOVS     r3,#0x40
        0x08002666:    4611        .F      MOV      r1,r2
        0x08002668:    f7ffffe4    ....    BL       USBD_LL_OpenEP ; 0x8002634
        0x0800266c:    2640        @&      MOVS     r6,#0x40
        0x0800266e:    2501        .%      MOVS     r5,#1
        0x08002670:    f8c46164    ..da    STR      r6,[r4,#0x164]
        0x08002674:    4633        3F      MOV      r3,r6
        0x08002676:    2200        ."      MOVS     r2,#0
        0x08002678:    2180        .!      MOVS     r1,#0x80
        0x0800267a:    4620         F      MOV      r0,r4
        0x0800267c:    f8c45158    ..XQ    STR      r5,[r4,#0x158]
        0x08002680:    f7ffffd8    ....    BL       USBD_LL_OpenEP ; 0x8002634
        0x08002684:    6266        fb      STR      r6,[r4,#0x24]
        0x08002686:    61a5        .a      STR      r5,[r4,#0x18]
        0x08002688:    f884529c    ...R    STRB     r5,[r4,#0x29c]
        0x0800268c:    2000        .       MOVS     r0,#0
        0x0800268e:    f8c40294    ....    STR      r0,[r4,#0x294]
        0x08002692:    6060        ``      STR      r0,[r4,#4]
        0x08002694:    f8c402a4    ....    STR      r0,[r4,#0x2a4]
        0x08002698:    f8d402b8    ....    LDR      r0,[r4,#0x2b8]
        0x0800269c:    b128        (.      CBZ      r0,0x80026aa ; USBD_LL_Reset + 76
        0x0800269e:    f8d402b4    ....    LDR      r0,[r4,#0x2b4]
        0x080026a2:    2100        .!      MOVS     r1,#0
        0x080026a4:    6842        Bh      LDR      r2,[r0,#4]
        0x080026a6:    4620         F      MOV      r0,r4
        0x080026a8:    4790        .G      BLX      r2
        0x080026aa:    2000        .       MOVS     r0,#0
        0x080026ac:    bd70        p.      POP      {r4-r6,pc}
    i.USBD_LL_Resume
    USBD_LL_Resume
        0x080026ae:    f890129c    ....    LDRB     r1,[r0,#0x29c]
        0x080026b2:    2904        .)      CMP      r1,#4
        0x080026b4:    d103        ..      BNE      0x80026be ; USBD_LL_Resume + 16
        0x080026b6:    f890129d    ....    LDRB     r1,[r0,#0x29d]
        0x080026ba:    f880129c    ....    STRB     r1,[r0,#0x29c]
        0x080026be:    2000        .       MOVS     r0,#0
        0x080026c0:    4770        pG      BX       lr
    i.USBD_LL_SOF
    USBD_LL_SOF
        0x080026c2:    b510        ..      PUSH     {r4,lr}
        0x080026c4:    f890129c    ....    LDRB     r1,[r0,#0x29c]
        0x080026c8:    2903        .)      CMP      r1,#3
        0x080026ca:    d104        ..      BNE      0x80026d6 ; USBD_LL_SOF + 20
        0x080026cc:    f8d012b4    ....    LDR      r1,[r0,#0x2b4]
        0x080026d0:    69c9        .i      LDR      r1,[r1,#0x1c]
        0x080026d2:    b101        ..      CBZ      r1,0x80026d6 ; USBD_LL_SOF + 20
        0x080026d4:    4788        .G      BLX      r1
        0x080026d6:    2000        .       MOVS     r0,#0
        0x080026d8:    bd10        ..      POP      {r4,pc}
    i.USBD_LL_SetSpeed
    USBD_LL_SetSpeed
        0x080026da:    7401        .t      STRB     r1,[r0,#0x10]
        0x080026dc:    2000        .       MOVS     r0,#0
        0x080026de:    4770        pG      BX       lr
    i.USBD_LL_SetUSBAddress
    USBD_LL_SetUSBAddress
        0x080026e0:    b510        ..      PUSH     {r4,lr}
        0x080026e2:    f8d002c0    ....    LDR      r0,[r0,#0x2c0]
        0x080026e6:    f7fefc3e    ..>.    BL       HAL_PCD_SetAddress ; 0x8000f66
        0x080026ea:    e8bd4010    ...@    POP      {r4,lr}
        0x080026ee:    f7ffbe7f    ....    B.W      USBD_Get_USB_Status ; 0x80023f0
    i.USBD_LL_SetupStage
    USBD_LL_SetupStage
        0x080026f2:    b570        p.      PUSH     {r4-r6,lr}
        0x080026f4:    4604        .F      MOV      r4,r0
        0x080026f6:    f500702a    ..*p    ADD      r0,r0,#0x2a8
        0x080026fa:    4605        .F      MOV      r5,r0
        0x080026fc:    f000f928    ..(.    BL       USBD_ParseSetupRequest ; 0x8002950
        0x08002700:    2001        .       MOVS     r0,#1
        0x08002702:    f8c40294    ....    STR      r0,[r4,#0x294]
        0x08002706:    f8b402ae    ....    LDRH     r0,[r4,#0x2ae]
        0x0800270a:    f8c40298    ....    STR      r0,[r4,#0x298]
        0x0800270e:    f89402a8    ....    LDRB     r0,[r4,#0x2a8]
        0x08002712:    f010011f    ....    ANDS     r1,r0,#0x1f
        0x08002716:    d00a        ..      BEQ      0x800272e ; USBD_LL_SetupStage + 60
        0x08002718:    2901        .)      CMP      r1,#1
        0x0800271a:    d00d        ..      BEQ      0x8002738 ; USBD_LL_SetupStage + 70
        0x0800271c:    2902        .)      CMP      r1,#2
        0x0800271e:    d010        ..      BEQ      0x8002742 ; USBD_LL_SetupStage + 80
        0x08002720:    f0000180    ....    AND      r1,r0,#0x80
        0x08002724:    4620         F      MOV      r0,r4
        0x08002726:    f000f811    ....    BL       USBD_LL_StallEP ; 0x800274c
        0x0800272a:    2000        .       MOVS     r0,#0
        0x0800272c:    bd70        p.      POP      {r4-r6,pc}
        0x0800272e:    4629        )F      MOV      r1,r5
        0x08002730:    4620         F      MOV      r0,r4
        0x08002732:    f000f97c    ..|.    BL       USBD_StdDevReq ; 0x8002a2e
        0x08002736:    e7f8        ..      B        0x800272a ; USBD_LL_SetupStage + 56
        0x08002738:    4629        )F      MOV      r1,r5
        0x0800273a:    4620         F      MOV      r0,r4
        0x0800273c:    f000faa8    ....    BL       USBD_StdItfReq ; 0x8002c90
        0x08002740:    e7f3        ..      B        0x800272a ; USBD_LL_SetupStage + 56
        0x08002742:    4629        )F      MOV      r1,r5
        0x08002744:    4620         F      MOV      r0,r4
        0x08002746:    f000f9fb    ....    BL       USBD_StdEPReq ; 0x8002b40
        0x0800274a:    e7ee        ..      B        0x800272a ; USBD_LL_SetupStage + 56
    i.USBD_LL_StallEP
    USBD_LL_StallEP
        0x0800274c:    b510        ..      PUSH     {r4,lr}
        0x0800274e:    f8d002c0    ....    LDR      r0,[r0,#0x2c0]
        0x08002752:    f7fefa64    ..d.    BL       HAL_PCD_EP_SetStall ; 0x8000c1e
        0x08002756:    e8bd4010    ...@    POP      {r4,lr}
        0x0800275a:    f7ffbe49    ..I.    B.W      USBD_Get_USB_Status ; 0x80023f0
    i.USBD_LL_Start
    USBD_LL_Start
        0x0800275e:    b510        ..      PUSH     {r4,lr}
        0x08002760:    f8d002c0    ....    LDR      r0,[r0,#0x2c0]
        0x08002764:    f7fefc1a    ....    BL       HAL_PCD_Start ; 0x8000f9c
        0x08002768:    e8bd4010    ...@    POP      {r4,lr}
        0x0800276c:    f7ffbe40    ..@.    B.W      USBD_Get_USB_Status ; 0x80023f0
    i.USBD_LL_Suspend
    USBD_LL_Suspend
        0x08002770:    f890129c    ....    LDRB     r1,[r0,#0x29c]
        0x08002774:    f880129d    ....    STRB     r1,[r0,#0x29d]
        0x08002778:    2104        .!      MOVS     r1,#4
        0x0800277a:    f880129c    ....    STRB     r1,[r0,#0x29c]
        0x0800277e:    2000        .       MOVS     r0,#0
        0x08002780:    4770        pG      BX       lr
    i.USBD_LL_Transmit
    USBD_LL_Transmit
        0x08002782:    b510        ..      PUSH     {r4,lr}
        0x08002784:    f8d002c0    ....    LDR      r0,[r0,#0x2c0]
        0x08002788:    f7fefa82    ....    BL       HAL_PCD_EP_Transmit ; 0x8000c90
        0x0800278c:    e8bd4010    ...@    POP      {r4,lr}
        0x08002790:    f7ffbe2e    ....    B.W      USBD_Get_USB_Status ; 0x80023f0
    i.USBD_MIDI_DataIn
    USBD_MIDI_DataIn
        0x08002794:    b510        ..      PUSH     {r4,lr}
        0x08002796:    f8d002b8    ....    LDR      r0,[r0,#0x2b8]
        0x0800279a:    2100        .!      MOVS     r1,#0
        0x0800279c:    7301        .s      STRB     r1,[r0,#0xc]
        0x0800279e:    f000f87d    ..}.    BL       USBD_MIDI_OnPacketsSent ; 0x800289c
        0x080027a2:    2000        .       MOVS     r0,#0
        0x080027a4:    bd10        ..      POP      {r4,pc}
        0x080027a6:    0000        ..      MOVS     r0,r0
    i.USBD_MIDI_DataOut
    USBD_MIDI_DataOut
        0x080027a8:    b510        ..      PUSH     {r4,lr}
        0x080027aa:    4604        .F      MOV      r4,r0
        0x080027ac:    2901        .)      CMP      r1,#1
        0x080027ae:    d001        ..      BEQ      0x80027b4 ; USBD_MIDI_DataOut + 12
        0x080027b0:    2002        .       MOVS     r0,#2
        0x080027b2:    bd10        ..      POP      {r4,pc}
        0x080027b4:    f8d402c0    ....    LDR      r0,[r4,#0x2c0]
        0x080027b8:    f7fef9df    ....    BL       HAL_PCD_EP_GetRxCount ; 0x8000b7a
        0x080027bc:    b2c1        ..      UXTB     r1,r0
        0x080027be:    4805        .H      LDR      r0,[pc,#20] ; [0x80027d4] = 0x20000f00
        0x080027c0:    f000f84c    ..L.    BL       USBD_MIDI_OnPacketsReceived ; 0x800285c
        0x080027c4:    2340        @#      MOVS     r3,#0x40
        0x080027c6:    4a03        .J      LDR      r2,[pc,#12] ; [0x80027d4] = 0x20000f00
        0x080027c8:    2101        .!      MOVS     r1,#1
        0x080027ca:    4620         F      MOV      r0,r4
        0x080027cc:    f7ffff3e    ..>.    BL       USBD_LL_PrepareReceive ; 0x800264c
        0x080027d0:    2000        .       MOVS     r0,#0
        0x080027d2:    bd10        ..      POP      {r4,pc}
    $d
        0x080027d4:    20000f00    ...     DCD    536874752
    $t
    i.USBD_MIDI_DeInit
    USBD_MIDI_DeInit
        0x080027d8:    b510        ..      PUSH     {r4,lr}
        0x080027da:    4604        .F      MOV      r4,r0
        0x080027dc:    2140        @!      MOVS     r1,#0x40
        0x080027de:    f7fffe31    ..1.    BL       USBD_LL_CloseEP ; 0x8002444
        0x080027e2:    f8d402b8    ....    LDR      r0,[r4,#0x2b8]
        0x080027e6:    b120         .      CBZ      r0,0x80027f2 ; USBD_MIDI_DeInit + 26
        0x080027e8:    f000fa79    ..y.    BL       USBD_static_free ; 0x8002cde
        0x080027ec:    2000        .       MOVS     r0,#0
        0x080027ee:    f8c402b8    ....    STR      r0,[r4,#0x2b8]
        0x080027f2:    2000        .       MOVS     r0,#0
        0x080027f4:    bd10        ..      POP      {r4,pc}
        0x080027f6:    0000        ..      MOVS     r0,r0
    i.USBD_MIDI_GetCfgDesc
    USBD_MIDI_GetCfgDesc
        0x080027f8:    2173        s!      MOVS     r1,#0x73
        0x080027fa:    8001        ..      STRH     r1,[r0,#0]
        0x080027fc:    4800        .H      LDR      r0,[pc,#0] ; [0x8002800] = 0x200000b0
        0x080027fe:    4770        pG      BX       lr
    $d
        0x08002800:    200000b0    ...     DCD    536871088
    $t
    i.USBD_MIDI_GetDeviceQualifierDesc
    USBD_MIDI_GetDeviceQualifierDesc
        0x08002804:    210a        .!      MOVS     r1,#0xa
        0x08002806:    8001        ..      STRH     r1,[r0,#0]
        0x08002808:    4800        .H      LDR      r0,[pc,#0] ; [0x800280c] = 0x20000124
        0x0800280a:    4770        pG      BX       lr
    $d
        0x0800280c:    20000124    $..     DCD    536871204
    $t
    i.USBD_MIDI_GetState
    USBD_MIDI_GetState
        0x08002810:    f8d002b8    ....    LDR      r0,[r0,#0x2b8]
        0x08002814:    7b00        .{      LDRB     r0,[r0,#0xc]
        0x08002816:    4770        pG      BX       lr
    i.USBD_MIDI_Init
    USBD_MIDI_Init
        0x08002818:    b570        p.      PUSH     {r4-r6,lr}
        0x0800281a:    4605        .F      MOV      r5,r0
        0x0800281c:    2400        .$      MOVS     r4,#0
        0x0800281e:    2340        @#      MOVS     r3,#0x40
        0x08002820:    2202        ."      MOVS     r2,#2
        0x08002822:    2181        .!      MOVS     r1,#0x81
        0x08002824:    f7ffff06    ....    BL       USBD_LL_OpenEP ; 0x8002634
        0x08002828:    2340        @#      MOVS     r3,#0x40
        0x0800282a:    2202        ."      MOVS     r2,#2
        0x0800282c:    2101        .!      MOVS     r1,#1
        0x0800282e:    4628        (F      MOV      r0,r5
        0x08002830:    f7ffff00    ....    BL       USBD_LL_OpenEP ; 0x8002634
        0x08002834:    2340        @#      MOVS     r3,#0x40
        0x08002836:    4a08        .J      LDR      r2,[pc,#32] ; [0x8002858] = 0x20000f00
        0x08002838:    2101        .!      MOVS     r1,#1
        0x0800283a:    4628        (F      MOV      r0,r5
        0x0800283c:    f7ffff06    ....    BL       USBD_LL_PrepareReceive ; 0x800264c
        0x08002840:    2010        .       MOVS     r0,#0x10
        0x08002842:    f000fa4d    ..M.    BL       USBD_static_malloc ; 0x8002ce0
        0x08002846:    f8c502b8    ....    STR      r0,[r5,#0x2b8]
        0x0800284a:    b118        ..      CBZ      r0,0x8002854 ; USBD_MIDI_Init + 60
        0x0800284c:    2100        .!      MOVS     r1,#0
        0x0800284e:    7301        .s      STRB     r1,[r0,#0xc]
        0x08002850:    4620         F      MOV      r0,r4
        0x08002852:    bd70        p.      POP      {r4-r6,pc}
        0x08002854:    2401        .$      MOVS     r4,#1
        0x08002856:    e7fb        ..      B        0x8002850 ; USBD_MIDI_Init + 56
    $d
        0x08002858:    20000f00    ...     DCD    536874752
    $t
    i.USBD_MIDI_OnPacketsReceived
    USBD_MIDI_OnPacketsReceived
        0x0800285c:    b570        p.      PUSH     {r4-r6,lr}
        0x0800285e:    4c0d        .L      LDR      r4,[pc,#52] ; [0x8002894] = 0x20000000
        0x08002860:    7862        bx      LDRB     r2,[r4,#1]
        0x08002862:    4b0d        .K      LDR      r3,[pc,#52] ; [0x8002898] = 0x20000170
        0x08002864:    e011        ..      B        0x800288a ; USBD_MIDI_OnPacketsReceived + 46
        0x08002866:    bf00        ..      NOP      
        0x08002868:    f8105b01    ...[    LDRB     r5,[r0],#1
        0x0800286c:    549d        .T      STRB     r5,[r3,r2]
        0x0800286e:    189d        ..      ADDS     r5,r3,r2
        0x08002870:    f8106b01    ...k    LDRB     r6,[r0],#1
        0x08002874:    706e        np      STRB     r6,[r5,#1]
        0x08002876:    f8106b02    ...k    LDRB     r6,[r0],#2
        0x0800287a:    1d12        ..      ADDS     r2,r2,#4
        0x0800287c:    70ae        .p      STRB     r6,[r5,#2]
        0x0800287e:    f8106c01    ...l    LDRB     r6,[r0,#-1]
        0x08002882:    1f09        ..      SUBS     r1,r1,#4
        0x08002884:    70ee        .p      STRB     r6,[r5,#3]
        0x08002886:    b2d2        ..      UXTB     r2,r2
        0x08002888:    b2c9        ..      UXTB     r1,r1
        0x0800288a:    2900        .)      CMP      r1,#0
        0x0800288c:    d1ec        ..      BNE      0x8002868 ; USBD_MIDI_OnPacketsReceived + 12
        0x0800288e:    7062        bp      STRB     r2,[r4,#1]
        0x08002890:    bd70        p.      POP      {r4-r6,pc}
    $d
        0x08002892:    0000        ..      DCW    0
        0x08002894:    20000000    ...     DCD    536870912
        0x08002898:    20000170    p..     DCD    536871280
    $t
    i.USBD_MIDI_OnPacketsSent
    USBD_MIDI_OnPacketsSent
        0x0800289c:    4770        pG      BX       lr
    i.USBD_MIDI_SendPackets
    USBD_MIDI_SendPackets
        0x0800289e:    b510        ..      PUSH     {r4,lr}
        0x080028a0:    4613        .F      MOV      r3,r2
        0x080028a2:    f890429c    ...B    LDRB     r4,[r0,#0x29c]
        0x080028a6:    f8d022b8    ..."    LDR      r2,[r0,#0x2b8]
        0x080028aa:    2c03        .,      CMP      r4,#3
        0x080028ac:    d107        ..      BNE      0x80028be ; USBD_MIDI_SendPackets + 32
        0x080028ae:    7b14        .{      LDRB     r4,[r2,#0xc]
        0x080028b0:    b92c        ,.      CBNZ     r4,0x80028be ; USBD_MIDI_SendPackets + 32
        0x080028b2:    2401        .$      MOVS     r4,#1
        0x080028b4:    7314        .s      STRB     r4,[r2,#0xc]
        0x080028b6:    460a        .F      MOV      r2,r1
        0x080028b8:    2181        .!      MOVS     r1,#0x81
        0x080028ba:    f7ffff62    ..b.    BL       USBD_LL_Transmit ; 0x8002782
        0x080028be:    2000        .       MOVS     r0,#0
        0x080028c0:    bd10        ..      POP      {r4,pc}
        0x080028c2:    0000        ..      MOVS     r0,r0
    i.USBD_MIDI_Setup
    USBD_MIDI_Setup
        0x080028c4:    b570        p.      PUSH     {r4-r6,lr}
        0x080028c6:    2200        ."      MOVS     r2,#0
        0x080028c8:    780d        .x      LDRB     r5,[r1,#0]
        0x080028ca:    f8d032b8    ...2    LDR      r3,[r0,#0x2b8]
        0x080028ce:    4614        .F      MOV      r4,r2
        0x080028d0:    f0150560    ..`.    ANDS     r5,r5,#0x60
        0x080028d4:    d01b        ..      BEQ      0x800290e ; USBD_MIDI_Setup + 74
        0x080028d6:    2d20         -      CMP      r5,#0x20
        0x080028d8:    d135        5.      BNE      0x8002946 ; USBD_MIDI_Setup + 130
        0x080028da:    784a        Jx      LDRB     r2,[r1,#1]
        0x080028dc:    2a02        .*      CMP      r2,#2
        0x080028de:    d013        ..      BEQ      0x8002908 ; USBD_MIDI_Setup + 68
        0x080028e0:    2a03        .*      CMP      r2,#3
        0x080028e2:    d00a        ..      BEQ      0x80028fa ; USBD_MIDI_Setup + 54
        0x080028e4:    2a0a        .*      CMP      r2,#0xa
        0x080028e6:    d00b        ..      BEQ      0x8002900 ; USBD_MIDI_Setup + 60
        0x080028e8:    2a0b        .*      CMP      r2,#0xb
        0x080028ea:    d003        ..      BEQ      0x80028f4 ; USBD_MIDI_Setup + 48
        0x080028ec:    f7fffc45    ..E.    BL       USBD_CtlError ; 0x800217a
        0x080028f0:    2002        .       MOVS     r0,#2
        0x080028f2:    bd70        p.      POP      {r4-r6,pc}
        0x080028f4:    7888        .x      LDRB     r0,[r1,#2]
        0x080028f6:    6018        .`      STR      r0,[r3,#0]
        0x080028f8:    e025        %.      B        0x8002946 ; USBD_MIDI_Setup + 130
        0x080028fa:    2201        ."      MOVS     r2,#1
        0x080028fc:    4619        .F      MOV      r1,r3
        0x080028fe:    e019        ..      B        0x8002934 ; USBD_MIDI_Setup + 112
        0x08002900:    8848        H.      LDRH     r0,[r1,#2]
        0x08002902:    0a00        ..      LSRS     r0,r0,#8
        0x08002904:    6058        X`      STR      r0,[r3,#4]
        0x08002906:    e01e        ..      B        0x8002946 ; USBD_MIDI_Setup + 130
        0x08002908:    2201        ."      MOVS     r2,#1
        0x0800290a:    1d19        ..      ADDS     r1,r3,#4
        0x0800290c:    e012        ..      B        0x8002934 ; USBD_MIDI_Setup + 112
        0x0800290e:    784d        Mx      LDRB     r5,[r1,#1]
        0x08002910:    2d06        .-      CMP      r5,#6
        0x08002912:    d004        ..      BEQ      0x800291e ; USBD_MIDI_Setup + 90
        0x08002914:    2d0a        .-      CMP      r5,#0xa
        0x08002916:    d010        ..      BEQ      0x800293a ; USBD_MIDI_Setup + 118
        0x08002918:    2d0b        .-      CMP      r5,#0xb
        0x0800291a:    d114        ..      BNE      0x8002946 ; USBD_MIDI_Setup + 130
        0x0800291c:    e011        ..      B        0x8002942 ; USBD_MIDI_Setup + 126
        0x0800291e:    884b        K.      LDRH     r3,[r1,#2]
        0x08002920:    2521        !%      MOVS     r5,#0x21
        0x08002922:    ebb52f13    .../    CMP      r5,r3,LSR #8
        0x08002926:    d104        ..      BNE      0x8002932 ; USBD_MIDI_Setup + 110
        0x08002928:    88ca        ..      LDRH     r2,[r1,#6]
        0x0800292a:    4c08        .L      LDR      r4,[pc,#32] ; [0x800294c] = 0x200000c2
        0x0800292c:    2a07        .*      CMP      r2,#7
        0x0800292e:    d900        ..      BLS      0x8002932 ; USBD_MIDI_Setup + 110
        0x08002930:    2207        ."      MOVS     r2,#7
        0x08002932:    4621        !F      MOV      r1,r4
        0x08002934:    f7fffc37    ..7.    BL       USBD_CtlSendData ; 0x80021a6
        0x08002938:    e005        ..      B        0x8002946 ; USBD_MIDI_Setup + 130
        0x0800293a:    2201        ."      MOVS     r2,#1
        0x0800293c:    f1030108    ....    ADD      r1,r3,#8
        0x08002940:    e7f8        ..      B        0x8002934 ; USBD_MIDI_Setup + 112
        0x08002942:    7888        .x      LDRB     r0,[r1,#2]
        0x08002944:    6098        .`      STR      r0,[r3,#8]
        0x08002946:    2000        .       MOVS     r0,#0
        0x08002948:    bd70        p.      POP      {r4-r6,pc}
    $d
        0x0800294a:    0000        ..      DCW    0
        0x0800294c:    200000c2    ...     DCD    536871106
    $t
    i.USBD_ParseSetupRequest
    USBD_ParseSetupRequest
        0x08002950:    780a        .x      LDRB     r2,[r1,#0]
        0x08002952:    7002        .p      STRB     r2,[r0,#0]
        0x08002954:    784a        Jx      LDRB     r2,[r1,#1]
        0x08002956:    7042        Bp      STRB     r2,[r0,#1]
        0x08002958:    788a        .x      LDRB     r2,[r1,#2]
        0x0800295a:    78cb        .x      LDRB     r3,[r1,#3]
        0x0800295c:    eb022203    ..."    ADD      r2,r2,r3,LSL #8
        0x08002960:    8042        B.      STRH     r2,[r0,#2]
        0x08002962:    790a        .y      LDRB     r2,[r1,#4]
        0x08002964:    794b        Ky      LDRB     r3,[r1,#5]
        0x08002966:    eb022203    ..."    ADD      r2,r2,r3,LSL #8
        0x0800296a:    8082        ..      STRH     r2,[r0,#4]
        0x0800296c:    798a        .y      LDRB     r2,[r1,#6]
        0x0800296e:    79c9        .y      LDRB     r1,[r1,#7]
        0x08002970:    eb022101    ...!    ADD      r1,r2,r1,LSL #8
        0x08002974:    80c1        ..      STRH     r1,[r0,#6]
        0x08002976:    4770        pG      BX       lr
    i.USBD_RegisterClass
    USBD_RegisterClass
        0x08002978:    4602        .F      MOV      r2,r0
        0x0800297a:    2000        .       MOVS     r0,#0
        0x0800297c:    b111        ..      CBZ      r1,0x8002984 ; USBD_RegisterClass + 12
        0x0800297e:    f8c212b4    ....    STR      r1,[r2,#0x2b4]
        0x08002982:    4770        pG      BX       lr
        0x08002984:    2002        .       MOVS     r0,#2
        0x08002986:    4770        pG      BX       lr
    i.USBD_SetClassConfig
    USBD_SetClassConfig
        0x08002988:    b510        ..      PUSH     {r4,lr}
        0x0800298a:    f8d022b4    ..."    LDR      r2,[r0,#0x2b4]
        0x0800298e:    2402        .$      MOVS     r4,#2
        0x08002990:    b11a        ..      CBZ      r2,0x800299a ; USBD_SetClassConfig + 18
        0x08002992:    6812        .h      LDR      r2,[r2,#0]
        0x08002994:    4790        .G      BLX      r2
        0x08002996:    b900        ..      CBNZ     r0,0x800299a ; USBD_SetClassConfig + 18
        0x08002998:    2400        .$      MOVS     r4,#0
        0x0800299a:    4620         F      MOV      r0,r4
        0x0800299c:    bd10        ..      POP      {r4,pc}
        0x0800299e:    0000        ..      MOVS     r0,r0
    i.USBD_SetConfig
    USBD_SetConfig
        0x080029a0:    b570        p.      PUSH     {r4-r6,lr}
        0x080029a2:    460e        .F      MOV      r6,r1
        0x080029a4:    4d1e        .M      LDR      r5,[pc,#120] ; [0x8002a20] = 0x2000012e
        0x080029a6:    7889        .x      LDRB     r1,[r1,#2]
        0x080029a8:    4604        .F      MOV      r4,r0
        0x080029aa:    7029        )p      STRB     r1,[r5,#0]
        0x080029ac:    2901        .)      CMP      r1,#1
        0x080029ae:    d831        1.      BHI      0x8002a14 ; USBD_SetConfig + 116
        0x080029b0:    f894029c    ....    LDRB     r0,[r4,#0x29c]
        0x080029b4:    2802        .(      CMP      r0,#2
        0x080029b6:    d00b        ..      BEQ      0x80029d0 ; USBD_SetConfig + 48
        0x080029b8:    2803        .(      CMP      r0,#3
        0x080029ba:    d00f        ..      BEQ      0x80029dc ; USBD_SetConfig + 60
        0x080029bc:    4631        1F      MOV      r1,r6
        0x080029be:    4620         F      MOV      r0,r4
        0x080029c0:    f7fffbdb    ....    BL       USBD_CtlError ; 0x800217a
        0x080029c4:    7829        )x      LDRB     r1,[r5,#0]
        0x080029c6:    4620         F      MOV      r0,r4
        0x080029c8:    e8bd4070    ..p@    POP      {r4-r6,lr}
        0x080029cc:    f7ffbbbe    ....    B        USBD_ClrClassConfig ; 0x800214c
        0x080029d0:    b1d9        ..      CBZ      r1,0x8002a0a ; USBD_SetConfig + 106
        0x080029d2:    2003        .       MOVS     r0,#3
        0x080029d4:    6061        a`      STR      r1,[r4,#4]
        0x080029d6:    f884029c    ....    STRB     r0,[r4,#0x29c]
        0x080029da:    e009        ..      B        0x80029f0 ; USBD_SetConfig + 80
        0x080029dc:    b171        q.      CBZ      r1,0x80029fc ; USBD_SetConfig + 92
        0x080029de:    6860        `h      LDR      r0,[r4,#4]
        0x080029e0:    4288        .B      CMP      r0,r1
        0x080029e2:    d012        ..      BEQ      0x8002a0a ; USBD_SetConfig + 106
        0x080029e4:    b2c1        ..      UXTB     r1,r0
        0x080029e6:    4620         F      MOV      r0,r4
        0x080029e8:    f7fffbb0    ....    BL       USBD_ClrClassConfig ; 0x800214c
        0x080029ec:    7829        )x      LDRB     r1,[r5,#0]
        0x080029ee:    6061        a`      STR      r1,[r4,#4]
        0x080029f0:    4620         F      MOV      r0,r4
        0x080029f2:    f7ffffc9    ....    BL       USBD_SetClassConfig ; 0x8002988
        0x080029f6:    2802        .(      CMP      r0,#2
        0x080029f8:    d00c        ..      BEQ      0x8002a14 ; USBD_SetConfig + 116
        0x080029fa:    e006        ..      B        0x8002a0a ; USBD_SetConfig + 106
        0x080029fc:    2002        .       MOVS     r0,#2
        0x080029fe:    f884029c    ....    STRB     r0,[r4,#0x29c]
        0x08002a02:    4620         F      MOV      r0,r4
        0x08002a04:    6061        a`      STR      r1,[r4,#4]
        0x08002a06:    f7fffba1    ....    BL       USBD_ClrClassConfig ; 0x800214c
        0x08002a0a:    4620         F      MOV      r0,r4
        0x08002a0c:    e8bd4070    ..p@    POP      {r4-r6,lr}
        0x08002a10:    f7ffbbd6    ....    B        USBD_CtlSendStatus ; 0x80021c0
        0x08002a14:    4631        1F      MOV      r1,r6
        0x08002a16:    4620         F      MOV      r0,r4
        0x08002a18:    e8bd4070    ..p@    POP      {r4-r6,lr}
        0x08002a1c:    f7ffbbad    ....    B        USBD_CtlError ; 0x800217a
    $d
        0x08002a20:    2000012e    ...     DCD    536871214
    $t
    i.USBD_Start
    USBD_Start
        0x08002a24:    b510        ..      PUSH     {r4,lr}
        0x08002a26:    f7fffe9a    ....    BL       USBD_LL_Start ; 0x800275e
        0x08002a2a:    2000        .       MOVS     r0,#0
        0x08002a2c:    bd10        ..      POP      {r4,pc}
    i.USBD_StdDevReq
    USBD_StdDevReq
        0x08002a2e:    e92d41f0    -..A    PUSH     {r4-r8,lr}
        0x08002a32:    780a        .x      LDRB     r2,[r1,#0]
        0x08002a34:    f04f0800    O...    MOV      r8,#0
        0x08002a38:    f0120260    ..`.    ANDS     r2,r2,#0x60
        0x08002a3c:    d008        ..      BEQ      0x8002a50 ; USBD_StdDevReq + 34
        0x08002a3e:    2a20         *      CMP      r2,#0x20
        0x08002a40:    d001        ..      BEQ      0x8002a46 ; USBD_StdDevReq + 24
        0x08002a42:    2a40        @*      CMP      r2,#0x40
        0x08002a44:    d16f        o.      BNE      0x8002b26 ; USBD_StdDevReq + 248
        0x08002a46:    f8d022b4    ..."    LDR      r2,[r0,#0x2b4]
        0x08002a4a:    6892        .h      LDR      r2,[r2,#8]
        0x08002a4c:    4790        .G      BLX      r2
        0x08002a4e:    e06c        l.      B        0x8002b2a ; USBD_StdDevReq + 252
        0x08002a50:    784b        Kx      LDRB     r3,[r1,#1]
        0x08002a52:    2200        ."      MOVS     r2,#0
        0x08002a54:    2501        .%      MOVS     r5,#1
        0x08002a56:    2602        .&      MOVS     r6,#2
        0x08002a58:    2b0a        .+      CMP      r3,#0xa
        0x08002a5a:    d264        d.      BCS      0x8002b26 ; USBD_StdDevReq + 248
        0x08002a5c:    e8dff003    ....    TBB      [pc,r3]
    $d
        0x08002a60:    55635b3f    ?[cU    DCD    1432574783
        0x08002a64:    63050863    c..c    DCD    1661274211
        0x08002a68:    282b        +(      DCW    10283
    $t
        0x08002a6a:    f7fffc29    ..).    BL       USBD_GetDescriptor ; 0x80022c0
        0x08002a6e:    e05c        \.      B        0x8002b2a ; USBD_StdDevReq + 252
        0x08002a70:    4604        .F      MOV      r4,r0
        0x08002a72:    8888        ..      LDRH     r0,[r1,#4]
        0x08002a74:    b9d0        ..      CBNZ     r0,0x8002aac ; USBD_StdDevReq + 126
        0x08002a76:    88c8        ..      LDRH     r0,[r1,#6]
        0x08002a78:    b9c0        ..      CBNZ     r0,0x8002aac ; USBD_StdDevReq + 126
        0x08002a7a:    8848        H.      LDRH     r0,[r1,#2]
        0x08002a7c:    2880        .(      CMP      r0,#0x80
        0x08002a7e:    d215        ..      BCS      0x8002aac ; USBD_StdDevReq + 126
        0x08002a80:    f000077f    ....    AND      r7,r0,#0x7f
        0x08002a84:    f894029c    ....    LDRB     r0,[r4,#0x29c]
        0x08002a88:    2803        .(      CMP      r0,#3
        0x08002a8a:    d00f        ..      BEQ      0x8002aac ; USBD_StdDevReq + 126
        0x08002a8c:    f884729e    ...r    STRB     r7,[r4,#0x29e]
        0x08002a90:    4639        9F      MOV      r1,r7
        0x08002a92:    4620         F      MOV      r0,r4
        0x08002a94:    f7fffe24    ..$.    BL       USBD_LL_SetUSBAddress ; 0x80026e0
        0x08002a98:    4620         F      MOV      r0,r4
        0x08002a9a:    f7fffb91    ....    BL       USBD_CtlSendStatus ; 0x80021c0
        0x08002a9e:    b117        ..      CBZ      r7,0x8002aa6 ; USBD_StdDevReq + 120
        0x08002aa0:    f884629c    ...b    STRB     r6,[r4,#0x29c]
        0x08002aa4:    e041        A.      B        0x8002b2a ; USBD_StdDevReq + 252
        0x08002aa6:    f884529c    ...R    STRB     r5,[r4,#0x29c]
        0x08002aaa:    e03e        >.      B        0x8002b2a ; USBD_StdDevReq + 252
        0x08002aac:    4620         F      MOV      r0,r4
        0x08002aae:    e03a        :.      B        0x8002b26 ; USBD_StdDevReq + 248
        0x08002ab0:    f7ffff76    ..v.    BL       USBD_SetConfig ; 0x80029a0
        0x08002ab4:    e039        9.      B        0x8002b2a ; USBD_StdDevReq + 252
        0x08002ab6:    88cb        ..      LDRH     r3,[r1,#6]
        0x08002ab8:    2b01        .+      CMP      r3,#1
        0x08002aba:    d134        4.      BNE      0x8002b26 ; USBD_StdDevReq + 248
        0x08002abc:    f890329c    ...2    LDRB     r3,[r0,#0x29c]
        0x08002ac0:    2b01        .+      CMP      r3,#1
        0x08002ac2:    d004        ..      BEQ      0x8002ace ; USBD_StdDevReq + 160
        0x08002ac4:    2b02        .+      CMP      r3,#2
        0x08002ac6:    d002        ..      BEQ      0x8002ace ; USBD_StdDevReq + 160
        0x08002ac8:    2b03        .+      CMP      r3,#3
        0x08002aca:    d12c        ,.      BNE      0x8002b26 ; USBD_StdDevReq + 248
        0x08002acc:    e004        ..      B        0x8002ad8 ; USBD_StdDevReq + 170
        0x08002ace:    6082        .`      STR      r2,[r0,#8]
        0x08002ad0:    2201        ."      MOVS     r2,#1
        0x08002ad2:    f1000108    ....    ADD      r1,r0,#8
        0x08002ad6:    e015        ..      B        0x8002b04 ; USBD_StdDevReq + 214
        0x08002ad8:    2201        ."      MOVS     r2,#1
        0x08002ada:    1d01        ..      ADDS     r1,r0,#4
        0x08002adc:    e012        ..      B        0x8002b04 ; USBD_StdDevReq + 214
        0x08002ade:    f890329c    ...2    LDRB     r3,[r0,#0x29c]
        0x08002ae2:    2b01        .+      CMP      r3,#1
        0x08002ae4:    d003        ..      BEQ      0x8002aee ; USBD_StdDevReq + 192
        0x08002ae6:    2b02        .+      CMP      r3,#2
        0x08002ae8:    d001        ..      BEQ      0x8002aee ; USBD_StdDevReq + 192
        0x08002aea:    2b03        .+      CMP      r3,#3
        0x08002aec:    d11b        ..      BNE      0x8002b26 ; USBD_StdDevReq + 248
        0x08002aee:    88cb        ..      LDRH     r3,[r1,#6]
        0x08002af0:    2b02        .+      CMP      r3,#2
        0x08002af2:    d118        ..      BNE      0x8002b26 ; USBD_StdDevReq + 248
        0x08002af4:    60c2        .`      STR      r2,[r0,#0xc]
        0x08002af6:    f8d012a4    ....    LDR      r1,[r0,#0x2a4]
        0x08002afa:    b101        ..      CBZ      r1,0x8002afe ; USBD_StdDevReq + 208
        0x08002afc:    60c6        .`      STR      r6,[r0,#0xc]
        0x08002afe:    2202        ."      MOVS     r2,#2
        0x08002b00:    f100010c    ....    ADD      r1,r0,#0xc
        0x08002b04:    f7fffb4f    ..O.    BL       USBD_CtlSendData ; 0x80021a6
        0x08002b08:    e00f        ..      B        0x8002b2a ; USBD_StdDevReq + 252
        0x08002b0a:    8849        I.      LDRH     r1,[r1,#2]
        0x08002b0c:    2901        .)      CMP      r1,#1
        0x08002b0e:    d10c        ..      BNE      0x8002b2a ; USBD_StdDevReq + 252
        0x08002b10:    f8c052a4    ...R    STR      r5,[r0,#0x2a4]
        0x08002b14:    e011        ..      B        0x8002b3a ; USBD_StdDevReq + 268
        0x08002b16:    f890329c    ...2    LDRB     r3,[r0,#0x29c]
        0x08002b1a:    2b01        .+      CMP      r3,#1
        0x08002b1c:    d008        ..      BEQ      0x8002b30 ; USBD_StdDevReq + 258
        0x08002b1e:    2b02        .+      CMP      r3,#2
        0x08002b20:    d006        ..      BEQ      0x8002b30 ; USBD_StdDevReq + 258
        0x08002b22:    2b03        .+      CMP      r3,#3
        0x08002b24:    d004        ..      BEQ      0x8002b30 ; USBD_StdDevReq + 258
        0x08002b26:    f7fffb28    ..(.    BL       USBD_CtlError ; 0x800217a
        0x08002b2a:    4640        @F      MOV      r0,r8
        0x08002b2c:    e8bd81f0    ....    POP      {r4-r8,pc}
        0x08002b30:    8849        I.      LDRH     r1,[r1,#2]
        0x08002b32:    2901        .)      CMP      r1,#1
        0x08002b34:    d1f9        ..      BNE      0x8002b2a ; USBD_StdDevReq + 252
        0x08002b36:    f8c022a4    ..."    STR      r2,[r0,#0x2a4]
        0x08002b3a:    f7fffb41    ..A.    BL       USBD_CtlSendStatus ; 0x80021c0
        0x08002b3e:    e7f4        ..      B        0x8002b2a ; USBD_StdDevReq + 252
    i.USBD_StdEPReq
    USBD_StdEPReq
        0x08002b40:    e92d41f0    -..A    PUSH     {r4-r8,lr}
        0x08002b44:    460a        .F      MOV      r2,r1
        0x08002b46:    4604        .F      MOV      r4,r0
        0x08002b48:    7810        .x      LDRB     r0,[r2,#0]
        0x08002b4a:    2700        .'      MOVS     r7,#0
        0x08002b4c:    7909        .y      LDRB     r1,[r1,#4]
        0x08002b4e:    f0100360    ..`.    ANDS     r3,r0,#0x60
        0x08002b52:    d00a        ..      BEQ      0x8002b6a ; USBD_StdEPReq + 42
        0x08002b54:    2b20         +      CMP      r3,#0x20
        0x08002b56:    d001        ..      BEQ      0x8002b5c ; USBD_StdEPReq + 28
        0x08002b58:    2b40        @+      CMP      r3,#0x40
        0x08002b5a:    d150        P.      BNE      0x8002bfe ; USBD_StdEPReq + 190
        0x08002b5c:    f8d402b4    ....    LDR      r0,[r4,#0x2b4]
        0x08002b60:    4611        .F      MOV      r1,r2
        0x08002b62:    6883        .h      LDR      r3,[r0,#8]
        0x08002b64:    4620         F      MOV      r0,r4
        0x08002b66:    4798        .G      BLX      r3
        0x08002b68:    e08f        ..      B        0x8002c8a ; USBD_StdEPReq + 330
        0x08002b6a:    f3c01041    ..A.    UBFX     r0,r0,#5,#2
        0x08002b6e:    2801        .(      CMP      r0,#1
        0x08002b70:    d006        ..      BEQ      0x8002b80 ; USBD_StdEPReq + 64
        0x08002b72:    7850        Px      LDRB     r0,[r2,#1]
        0x08002b74:    b3d0        ..      CBZ      r0,0x8002bec ; USBD_StdEPReq + 172
        0x08002b76:    2801        .(      CMP      r0,#1
        0x08002b78:    d02a        *.      BEQ      0x8002bd0 ; USBD_StdEPReq + 144
        0x08002b7a:    2803        .(      CMP      r0,#3
        0x08002b7c:    d13f        ?.      BNE      0x8002bfe ; USBD_StdEPReq + 190
        0x08002b7e:    e007        ..      B        0x8002b90 ; USBD_StdEPReq + 80
        0x08002b80:    f8d402b4    ....    LDR      r0,[r4,#0x2b4]
        0x08002b84:    4611        .F      MOV      r1,r2
        0x08002b86:    6883        .h      LDR      r3,[r0,#8]
        0x08002b88:    4620         F      MOV      r0,r4
        0x08002b8a:    e8bd41f0    ...A    POP      {r4-r8,lr}
        0x08002b8e:    4718        .G      BX       r3
        0x08002b90:    f894029c    ....    LDRB     r0,[r4,#0x29c]
        0x08002b94:    2802        .(      CMP      r0,#2
        0x08002b96:    d002        ..      BEQ      0x8002b9e ; USBD_StdEPReq + 94
        0x08002b98:    2803        .(      CMP      r0,#3
        0x08002b9a:    d172        r.      BNE      0x8002c82 ; USBD_StdEPReq + 322
        0x08002b9c:    e00a        ..      B        0x8002bb4 ; USBD_StdEPReq + 116
        0x08002b9e:    b371        q.      CBZ      r1,0x8002bfe ; USBD_StdEPReq + 190
        0x08002ba0:    2980        .)      CMP      r1,#0x80
        0x08002ba2:    d06e        n.      BEQ      0x8002c82 ; USBD_StdEPReq + 322
        0x08002ba4:    4620         F      MOV      r0,r4
        0x08002ba6:    f7fffdd1    ....    BL       USBD_LL_StallEP ; 0x800274c
        0x08002baa:    2180        .!      MOVS     r1,#0x80
        0x08002bac:    4620         F      MOV      r0,r4
        0x08002bae:    f7fffdcd    ....    BL       USBD_LL_StallEP ; 0x800274c
        0x08002bb2:    e06a        j.      B        0x8002c8a ; USBD_StdEPReq + 330
        0x08002bb4:    8850        P.      LDRH     r0,[r2,#2]
        0x08002bb6:    b938        8.      CBNZ     r0,0x8002bc8 ; USBD_StdEPReq + 136
        0x08002bb8:    b131        1.      CBZ      r1,0x8002bc8 ; USBD_StdEPReq + 136
        0x08002bba:    2980        .)      CMP      r1,#0x80
        0x08002bbc:    d004        ..      BEQ      0x8002bc8 ; USBD_StdEPReq + 136
        0x08002bbe:    88d0        ..      LDRH     r0,[r2,#6]
        0x08002bc0:    b910        ..      CBNZ     r0,0x8002bc8 ; USBD_StdEPReq + 136
        0x08002bc2:    4620         F      MOV      r0,r4
        0x08002bc4:    f7fffdc2    ....    BL       USBD_LL_StallEP ; 0x800274c
        0x08002bc8:    4620         F      MOV      r0,r4
        0x08002bca:    f7fffaf9    ....    BL       USBD_CtlSendStatus ; 0x80021c0
        0x08002bce:    e05c        \.      B        0x8002c8a ; USBD_StdEPReq + 330
        0x08002bd0:    f894029c    ....    LDRB     r0,[r4,#0x29c]
        0x08002bd4:    2802        .(      CMP      r0,#2
        0x08002bd6:    d0e2        ..      BEQ      0x8002b9e ; USBD_StdEPReq + 94
        0x08002bd8:    2803        .(      CMP      r0,#3
        0x08002bda:    d152        R.      BNE      0x8002c82 ; USBD_StdEPReq + 322
        0x08002bdc:    8850        P.      LDRH     r0,[r2,#2]
        0x08002bde:    bb98        ..      CBNZ     r0,0x8002c48 ; USBD_StdEPReq + 264
        0x08002be0:    0648        H.      LSLS     r0,r1,#25
        0x08002be2:    d0f1        ..      BEQ      0x8002bc8 ; USBD_StdEPReq + 136
        0x08002be4:    4620         F      MOV      r0,r4
        0x08002be6:    f7fffc24    ..$.    BL       USBD_LL_ClearStallEP ; 0x8002432
        0x08002bea:    e7ed        ..      B        0x8002bc8 ; USBD_StdEPReq + 136
        0x08002bec:    e7ff        ..      B        0x8002bee ; USBD_StdEPReq + 174
        0x08002bee:    f894029c    ....    LDRB     r0,[r4,#0x29c]
        0x08002bf2:    2600        .&      MOVS     r6,#0
        0x08002bf4:    2802        .(      CMP      r0,#2
        0x08002bf6:    d003        ..      BEQ      0x8002c00 ; USBD_StdEPReq + 192
        0x08002bf8:    2803        .(      CMP      r0,#3
        0x08002bfa:    d142        B.      BNE      0x8002c82 ; USBD_StdEPReq + 322
        0x08002bfc:    e012        ..      B        0x8002c24 ; USBD_StdEPReq + 228
        0x08002bfe:    e040        @.      B        0x8002c82 ; USBD_StdEPReq + 322
        0x08002c00:    b109        ..      CBZ      r1,0x8002c06 ; USBD_StdEPReq + 198
        0x08002c02:    2980        .)      CMP      r1,#0x80
        0x08002c04:    d13d        =.      BNE      0x8002c82 ; USBD_StdEPReq + 322
        0x08002c06:    0608        ..      LSLS     r0,r1,#24
        0x08002c08:    f001007f    ....    AND      r0,r1,#0x7f
        0x08002c0c:    eb000080    ....    ADD      r0,r0,r0,LSL #2
        0x08002c10:    eb040180    ....    ADD      r1,r4,r0,LSL #2
        0x08002c14:    d501        ..      BPL      0x8002c1a ; USBD_StdEPReq + 218
        0x08002c16:    3114        .1      ADDS     r1,r1,#0x14
        0x08002c18:    e001        ..      B        0x8002c1e ; USBD_StdEPReq + 222
        0x08002c1a:    f50171aa    ...q    ADD      r1,r1,#0x154
        0x08002c1e:    2202        ."      MOVS     r2,#2
        0x08002c20:    600e        .`      STR      r6,[r1,#0]
        0x08002c22:    e02a        *.      B        0x8002c7a ; USBD_StdEPReq + 314
        0x08002c24:    0608        ..      LSLS     r0,r1,#24
        0x08002c26:    f001000f    ....    AND      r0,r1,#0xf
        0x08002c2a:    eb000080    ....    ADD      r0,r0,r0,LSL #2
        0x08002c2e:    eb040080    ....    ADD      r0,r4,r0,LSL #2
        0x08002c32:    d50a        ..      BPL      0x8002c4a ; USBD_StdEPReq + 266
        0x08002c34:    6980        .i      LDR      r0,[r0,#0x18]
        0x08002c36:    b320         .      CBZ      r0,0x8002c82 ; USBD_StdEPReq + 322
        0x08002c38:    f001007f    ....    AND      r0,r1,#0x7f
        0x08002c3c:    eb000080    ....    ADD      r0,r0,r0,LSL #2
        0x08002c40:    eb040580    ....    ADD      r5,r4,r0,LSL #2
        0x08002c44:    3514        .5      ADDS     r5,r5,#0x14
        0x08002c46:    e00b        ..      B        0x8002c60 ; USBD_StdEPReq + 288
        0x08002c48:    e01f        ..      B        0x8002c8a ; USBD_StdEPReq + 330
        0x08002c4a:    f8d00158    ..X.    LDR      r0,[r0,#0x158]
        0x08002c4e:    b1c0        ..      CBZ      r0,0x8002c82 ; USBD_StdEPReq + 322
        0x08002c50:    f001007f    ....    AND      r0,r1,#0x7f
        0x08002c54:    eb000080    ....    ADD      r0,r0,r0,LSL #2
        0x08002c58:    eb040580    ....    ADD      r5,r4,r0,LSL #2
        0x08002c5c:    f50575aa    ...u    ADD      r5,r5,#0x154
        0x08002c60:    b141        A.      CBZ      r1,0x8002c74 ; USBD_StdEPReq + 308
        0x08002c62:    2980        .)      CMP      r1,#0x80
        0x08002c64:    d006        ..      BEQ      0x8002c74 ; USBD_StdEPReq + 308
        0x08002c66:    4620         F      MOV      r0,r4
        0x08002c68:    f7fffcd4    ....    BL       USBD_LL_IsStallEP ; 0x8002614
        0x08002c6c:    b110        ..      CBZ      r0,0x8002c74 ; USBD_StdEPReq + 308
        0x08002c6e:    2001        .       MOVS     r0,#1
        0x08002c70:    6028        (`      STR      r0,[r5,#0]
        0x08002c72:    e000        ..      B        0x8002c76 ; USBD_StdEPReq + 310
        0x08002c74:    602e        .`      STR      r6,[r5,#0]
        0x08002c76:    2202        ."      MOVS     r2,#2
        0x08002c78:    4629        )F      MOV      r1,r5
        0x08002c7a:    4620         F      MOV      r0,r4
        0x08002c7c:    f7fffa93    ....    BL       USBD_CtlSendData ; 0x80021a6
        0x08002c80:    e003        ..      B        0x8002c8a ; USBD_StdEPReq + 330
        0x08002c82:    4611        .F      MOV      r1,r2
        0x08002c84:    4620         F      MOV      r0,r4
        0x08002c86:    f7fffa78    ..x.    BL       USBD_CtlError ; 0x800217a
        0x08002c8a:    4638        8F      MOV      r0,r7
        0x08002c8c:    e8bd81f0    ....    POP      {r4-r8,pc}
    i.USBD_StdItfReq
    USBD_StdItfReq
        0x08002c90:    b570        p.      PUSH     {r4-r6,lr}
        0x08002c92:    4605        .F      MOV      r5,r0
        0x08002c94:    7808        .x      LDRB     r0,[r1,#0]
        0x08002c96:    460c        .F      MOV      r4,r1
        0x08002c98:    f0100060    ..`.    ANDS     r0,r0,#0x60
        0x08002c9c:    d003        ..      BEQ      0x8002ca6 ; USBD_StdItfReq + 22
        0x08002c9e:    2820         (      CMP      r0,#0x20
        0x08002ca0:    d001        ..      BEQ      0x8002ca6 ; USBD_StdItfReq + 22
        0x08002ca2:    2840        @(      CMP      r0,#0x40
        0x08002ca4:    d116        ..      BNE      0x8002cd4 ; USBD_StdItfReq + 68
        0x08002ca6:    f895029c    ....    LDRB     r0,[r5,#0x29c]
        0x08002caa:    2801        .(      CMP      r0,#1
        0x08002cac:    d003        ..      BEQ      0x8002cb6 ; USBD_StdItfReq + 38
        0x08002cae:    2802        .(      CMP      r0,#2
        0x08002cb0:    d001        ..      BEQ      0x8002cb6 ; USBD_StdItfReq + 38
        0x08002cb2:    2803        .(      CMP      r0,#3
        0x08002cb4:    d10e        ..      BNE      0x8002cd4 ; USBD_StdItfReq + 68
        0x08002cb6:    7920         y      LDRB     r0,[r4,#4]
        0x08002cb8:    2801        .(      CMP      r0,#1
        0x08002cba:    d80b        ..      BHI      0x8002cd4 ; USBD_StdItfReq + 68
        0x08002cbc:    f8d502b4    ....    LDR      r0,[r5,#0x2b4]
        0x08002cc0:    6882        .h      LDR      r2,[r0,#8]
        0x08002cc2:    4628        (F      MOV      r0,r5
        0x08002cc4:    4790        .G      BLX      r2
        0x08002cc6:    88e1        ..      LDRH     r1,[r4,#6]
        0x08002cc8:    4301        .C      ORRS     r1,r1,r0
        0x08002cca:    d106        ..      BNE      0x8002cda ; USBD_StdItfReq + 74
        0x08002ccc:    4628        (F      MOV      r0,r5
        0x08002cce:    f7fffa77    ..w.    BL       USBD_CtlSendStatus ; 0x80021c0
        0x08002cd2:    e002        ..      B        0x8002cda ; USBD_StdItfReq + 74
        0x08002cd4:    4628        (F      MOV      r0,r5
        0x08002cd6:    f7fffa50    ..P.    BL       USBD_CtlError ; 0x800217a
        0x08002cda:    2000        .       MOVS     r0,#0
        0x08002cdc:    bd70        p.      POP      {r4-r6,pc}
    i.USBD_static_free
    USBD_static_free
        0x08002cde:    4770        pG      BX       lr
    i.USBD_static_malloc
    USBD_static_malloc
        0x08002ce0:    4800        .H      LDR      r0,[pc,#0] ; [0x8002ce4] = 0x20000c00
        0x08002ce2:    4770        pG      BX       lr
    $d
        0x08002ce4:    20000c00    ...     DCD    536873984
    $t
    i.USB_ActivateEndpoint
    USB_ActivateEndpoint
        0x08002ce8:    e92d47f0    -..G    PUSH     {r4-r10,lr}
        0x08002cec:    780c        .x      LDRB     r4,[r1,#0]
        0x08002cee:    2600        .&      MOVS     r6,#0
        0x08002cf0:    f8303024    0.$0    LDRH     r3,[r0,r4,LSL #2]
        0x08002cf4:    f648128f    H...    MOV      r2,#0x898f
        0x08002cf8:    4013        .@      ANDS     r3,r3,r2
        0x08002cfa:    78ca        .x      LDRB     r2,[r1,#3]
        0x08002cfc:    2a00        .*      CMP      r2,#0
        0x08002cfe:    d07d        }.      BEQ      0x8002dfc ; USB_ActivateEndpoint + 276
        0x08002d00:    2a01        .*      CMP      r2,#1
        0x08002d02:    d07c        |.      BEQ      0x8002dfe ; USB_ActivateEndpoint + 278
        0x08002d04:    2a02        .*      CMP      r2,#2
        0x08002d06:    d002        ..      BEQ      0x8002d0e ; USB_ActivateEndpoint + 38
        0x08002d08:    2a03        .*      CMP      r2,#3
        0x08002d0a:    d07f        ..      BEQ      0x8002e0c ; USB_ActivateEndpoint + 292
        0x08002d0c:    2601        .&      MOVS     r6,#1
        0x08002d0e:    f2480280    H...    MOV      r2,#0x8080
        0x08002d12:    4313        .C      ORRS     r3,r3,r2
        0x08002d14:    f8203024     .$0    STRH     r3,[r0,r4,LSL #2]
        0x08002d18:    780d        .x      LDRB     r5,[r1,#0]
        0x08002d1a:    f8304025    0.%@    LDRH     r4,[r0,r5,LSL #2]
        0x08002d1e:    f648738f    H..s    MOV      r3,#0x8f8f
        0x08002d22:    401c        .@      ANDS     r4,r4,r3
        0x08002d24:    432c        ,C      ORRS     r4,r4,r5
        0x08002d26:    4314        .C      ORRS     r4,r4,r2
        0x08002d28:    f8204025     .%@    STRH     r4,[r0,r5,LSL #2]
        0x08002d2c:    7b0d        .{      LDRB     r5,[r1,#0xc]
        0x08002d2e:    f2480cc0    H...    MOV      r12,#0x80c0
        0x08002d32:    f64874bf    H..t    MOV      r4,#0x8fbf
        0x08002d36:    f24c0780    L...    MOV      r7,#0xc080
        0x08002d3a:    f64b798f    K..y    MOV      r9,#0xbf8f
        0x08002d3e:    b3ed        ..      CBZ      r5,0x8002dbc ; USB_ActivateEndpoint + 212
        0x08002d40:    f8918000    ....    LDRB     r8,[r1,#0]
        0x08002d44:    46c2        .F      MOV      r10,r8
        0x08002d46:    f8305028    0.(P    LDRH     r5,[r0,r8,LSL #2]
        0x08002d4a:    f2481880    H...    MOV      r8,#0x8180
        0x08002d4e:    401d        .@      ANDS     r5,r5,r3
        0x08002d50:    ea450508    E...    ORR      r5,r5,r8
        0x08002d54:    f820502a     .*P    STRH     r5,[r0,r10,LSL #2]
        0x08002d58:    f8b05050    ..PP    LDRH     r5,[r0,#0x50]
        0x08002d5c:    f8918000    ....    LDRB     r8,[r1,#0]
        0x08002d60:    4405        .D      ADD      r5,r5,r0
        0x08002d62:    eb051508    ....    ADD      r5,r5,r8,LSL #4
        0x08002d66:    f8b18008    ....    LDRH     r8,[r1,#8]
        0x08002d6a:    f0280801    (...    BIC      r8,r8,#1
        0x08002d6e:    f8a58400    ....    STRH     r8,[r5,#0x400]
        0x08002d72:    f8b05050    ..PP    LDRH     r5,[r0,#0x50]
        0x08002d76:    f8918000    ....    LDRB     r8,[r1,#0]
        0x08002d7a:    4405        .D      ADD      r5,r5,r0
        0x08002d7c:    eb051508    ....    ADD      r5,r5,r8,LSL #4
        0x08002d80:    f8b1800a    ....    LDRH     r8,[r1,#0xa]
        0x08002d84:    f0280801    (...    BIC      r8,r8,#1
        0x08002d88:    f8a58408    ....    STRH     r8,[r5,#0x408]
        0x08002d8c:    784d        Mx      LDRB     r5,[r1,#1]
        0x08002d8e:    2d00        .-      CMP      r5,#0
        0x08002d90:    780d        .x      LDRB     r5,[r1,#0]
        0x08002d92:    f8308025    0.%.    LDRH     r8,[r0,r5,LSL #2]
        0x08002d96:    ea4f4848    O.HH    LSL      r8,r8,#17
        0x08002d9a:    d07d        }.      BEQ      0x8002e98 ; USB_ActivateEndpoint + 432
        0x08002d9c:    f1b80f00    ....    CMP      r8,#0
        0x08002da0:    da07        ..      BGE      0x8002db2 ; USB_ActivateEndpoint + 202
        0x08002da2:    f8308025    0.%.    LDRH     r8,[r0,r5,LSL #2]
        0x08002da6:    ea080803    ....    AND      r8,r8,r3
        0x08002daa:    ea480807    H...    ORR      r8,r8,r7
        0x08002dae:    f8208025     .%.    STRH     r8,[r0,r5,LSL #2]
        0x08002db2:    780f        .x      LDRB     r7,[r1,#0]
        0x08002db4:    f8305027    0.'P    LDRH     r5,[r0,r7,LSL #2]
        0x08002db8:    066d        m.      LSLS     r5,r5,#25
        0x08002dba:    e000        ..      B        0x8002dbe ; USB_ActivateEndpoint + 214
        0x08002dbc:    e02c        ,.      B        0x8002e18 ; USB_ActivateEndpoint + 304
        0x08002dbe:    d506        ..      BPL      0x8002dce ; USB_ActivateEndpoint + 230
        0x08002dc0:    f8305027    0.'P    LDRH     r5,[r0,r7,LSL #2]
        0x08002dc4:    401d        .@      ANDS     r5,r5,r3
        0x08002dc6:    ea45050c    E...    ORR      r5,r5,r12
        0x08002dca:    f8205027     .'P    STRH     r5,[r0,r7,LSL #2]
        0x08002dce:    78cb        .x      LDRB     r3,[r1,#3]
        0x08002dd0:    780d        .x      LDRB     r5,[r1,#0]
        0x08002dd2:    2b01        .+      CMP      r3,#1
        0x08002dd4:    f8303025    0.%0    LDRH     r3,[r0,r5,LSL #2]
        0x08002dd8:    ea030304    ....    AND      r3,r3,r4
        0x08002ddc:    d001        ..      BEQ      0x8002de2 ; USB_ActivateEndpoint + 250
        0x08002dde:    f0830320    .. .    EOR      r3,r3,#0x20
        0x08002de2:    4313        .C      ORRS     r3,r3,r2
        0x08002de4:    f8203025     .%0    STRH     r3,[r0,r5,LSL #2]
        0x08002de8:    780b        .x      LDRB     r3,[r1,#0]
        0x08002dea:    f8301023    0.#.    LDRH     r1,[r0,r3,LSL #2]
        0x08002dee:    ea010109    ....    AND      r1,r1,r9
        0x08002df2:    4311        .C      ORRS     r1,r1,r2
        0x08002df4:    f8201023     .#.    STRH     r1,[r0,r3,LSL #2]
        0x08002df8:    4630        0F      MOV      r0,r6
        0x08002dfa:    e002        ..      B        0x8002e02 ; USB_ActivateEndpoint + 282
        0x08002dfc:    e003        ..      B        0x8002e06 ; USB_ActivateEndpoint + 286
        0x08002dfe:    e008        ..      B        0x8002e12 ; USB_ActivateEndpoint + 298
        0x08002e00:    e004        ..      B        0x8002e0c ; USB_ActivateEndpoint + 292
        0x08002e02:    e8bd87f0    ....    POP      {r4-r10,pc}
        0x08002e06:    f4437300    C..s    ORR      r3,r3,#0x200
        0x08002e0a:    e780        ..      B        0x8002d0e ; USB_ActivateEndpoint + 38
        0x08002e0c:    f44363c0    C..c    ORR      r3,r3,#0x600
        0x08002e10:    e77d        }.      B        0x8002d0e ; USB_ActivateEndpoint + 38
        0x08002e12:    f4436380    C..c    ORR      r3,r3,#0x400
        0x08002e16:    e77a        z.      B        0x8002d0e ; USB_ActivateEndpoint + 38
        0x08002e18:    784d        Mx      LDRB     r5,[r1,#1]
        0x08002e1a:    b32d        -.      CBZ      r5,0x8002e68 ; USB_ActivateEndpoint + 384
        0x08002e1c:    f8b05050    ..PP    LDRH     r5,[r0,#0x50]
        0x08002e20:    780f        .x      LDRB     r7,[r1,#0]
        0x08002e22:    4405        .D      ADD      r5,r5,r0
        0x08002e24:    eb051507    ....    ADD      r5,r5,r7,LSL #4
        0x08002e28:    88cf        ..      LDRH     r7,[r1,#6]
        0x08002e2a:    f0270701    '...    BIC      r7,r7,#1
        0x08002e2e:    f8a57400    ...t    STRH     r7,[r5,#0x400]
        0x08002e32:    780f        .x      LDRB     r7,[r1,#0]
        0x08002e34:    f8305027    0.'P    LDRH     r5,[r0,r7,LSL #2]
        0x08002e38:    066d        m.      LSLS     r5,r5,#25
        0x08002e3a:    d506        ..      BPL      0x8002e4a ; USB_ActivateEndpoint + 354
        0x08002e3c:    f8305027    0.'P    LDRH     r5,[r0,r7,LSL #2]
        0x08002e40:    401d        .@      ANDS     r5,r5,r3
        0x08002e42:    ea45050c    E...    ORR      r5,r5,r12
        0x08002e46:    f8205027     .'P    STRH     r5,[r0,r7,LSL #2]
        0x08002e4a:    78cb        .x      LDRB     r3,[r1,#3]
        0x08002e4c:    2b01        .+      CMP      r3,#1
        0x08002e4e:    d006        ..      BEQ      0x8002e5e ; USB_ActivateEndpoint + 374
        0x08002e50:    780b        .x      LDRB     r3,[r1,#0]
        0x08002e52:    f8301023    0.#.    LDRH     r1,[r0,r3,LSL #2]
        0x08002e56:    4021        !@      ANDS     r1,r1,r4
        0x08002e58:    f0810120    .. .    EOR      r1,r1,#0x20
        0x08002e5c:    e7c9        ..      B        0x8002df2 ; USB_ActivateEndpoint + 266
        0x08002e5e:    780b        .x      LDRB     r3,[r1,#0]
        0x08002e60:    f8301023    0.#.    LDRH     r1,[r0,r3,LSL #2]
        0x08002e64:    4021        !@      ANDS     r1,r1,r4
        0x08002e66:    e7c4        ..      B        0x8002df2 ; USB_ActivateEndpoint + 266
        0x08002e68:    f8b04050    ..P@    LDRH     r4,[r0,#0x50]
        0x08002e6c:    780d        .x      LDRB     r5,[r1,#0]
        0x08002e6e:    4404        .D      ADD      r4,r4,r0
        0x08002e70:    eb041405    ....    ADD      r4,r4,r5,LSL #4
        0x08002e74:    88cd        ..      LDRH     r5,[r1,#6]
        0x08002e76:    f0250501    %...    BIC      r5,r5,#1
        0x08002e7a:    f8a45408    ...T    STRH     r5,[r4,#0x408]
        0x08002e7e:    f8b04050    ..P@    LDRH     r4,[r0,#0x50]
        0x08002e82:    780d        .x      LDRB     r5,[r1,#0]
        0x08002e84:    4404        .D      ADD      r4,r4,r0
        0x08002e86:    eb041405    ....    ADD      r4,r4,r5,LSL #4
        0x08002e8a:    690d        .i      LDR      r5,[r1,#0x10]
        0x08002e8c:    f204440c    ...D    ADD      r4,r4,#0x40c
        0x08002e90:    b175        u.      CBZ      r5,0x8002eb0 ; USB_ActivateEndpoint + 456
        0x08002e92:    2d3e        >-      CMP      r5,#0x3e
        0x08002e94:    d814        ..      BHI      0x8002ec0 ; USB_ActivateEndpoint + 472
        0x08002e96:    e000        ..      B        0x8002e9a ; USB_ActivateEndpoint + 434
        0x08002e98:    e030        0.      B        0x8002efc ; USB_ActivateEndpoint + 532
        0x08002e9a:    ea4f0c55    O.U.    LSR      r12,r5,#1
        0x08002e9e:    07ed        ..      LSLS     r5,r5,#31
        0x08002ea0:    d001        ..      BEQ      0x8002ea6 ; USB_ActivateEndpoint + 446
        0x08002ea2:    f10c0c01    ....    ADD      r12,r12,#1
        0x08002ea6:    f64f75ff    O..u    MOV      r5,#0xffff
        0x08002eaa:    ea05258c    ...%    AND      r5,r5,r12,LSL #10
        0x08002eae:    e011        ..      B        0x8002ed4 ; USB_ActivateEndpoint + 492
        0x08002eb0:    8825        %.      LDRH     r5,[r4,#0]
        0x08002eb2:    f42545f8    %..E    BIC      r5,r5,#0x7c00
        0x08002eb6:    8025        %.      STRH     r5,[r4,#0]
        0x08002eb8:    8825        %.      LDRH     r5,[r4,#0]
        0x08002eba:    f4454500    E..E    ORR      r5,r5,#0x8000
        0x08002ebe:    e009        ..      B        0x8002ed4 ; USB_ActivateEndpoint + 492
        0x08002ec0:    ea4f1c55    O.U.    LSR      r12,r5,#5
        0x08002ec4:    06ed        ..      LSLS     r5,r5,#27
        0x08002ec6:    d101        ..      BNE      0x8002ecc ; USB_ActivateEndpoint + 484
        0x08002ec8:    f1ac0c01    ....    SUB      r12,r12,#1
        0x08002ecc:    f44f4500    O..E    MOV      r5,#0x8000
        0x08002ed0:    ea45258c    E..%    ORR      r5,r5,r12,LSL #10
        0x08002ed4:    8025        %.      STRH     r5,[r4,#0]
        0x08002ed6:    780d        .x      LDRB     r5,[r1,#0]
        0x08002ed8:    f8304025    0.%@    LDRH     r4,[r0,r5,LSL #2]
        0x08002edc:    0464        d.      LSLS     r4,r4,#17
        0x08002ede:    d505        ..      BPL      0x8002eec ; USB_ActivateEndpoint + 516
        0x08002ee0:    f8304025    0.%@    LDRH     r4,[r0,r5,LSL #2]
        0x08002ee4:    401c        .@      ANDS     r4,r4,r3
        0x08002ee6:    433c        <C      ORRS     r4,r4,r7
        0x08002ee8:    f8204025     .%@    STRH     r4,[r0,r5,LSL #2]
        0x08002eec:    780b        .x      LDRB     r3,[r1,#0]
        0x08002eee:    f8301023    0.#.    LDRH     r1,[r0,r3,LSL #2]
        0x08002ef2:    ea010109    ....    AND      r1,r1,r9
        0x08002ef6:    f4815140    ..@Q    EOR      r1,r1,#0x3000
        0x08002efa:    e77a        z.      B        0x8002df2 ; USB_ActivateEndpoint + 266
        0x08002efc:    f1b80f00    ....    CMP      r8,#0
        0x08002f00:    da07        ..      BGE      0x8002f12 ; USB_ActivateEndpoint + 554
        0x08002f02:    f8308025    0.%.    LDRH     r8,[r0,r5,LSL #2]
        0x08002f06:    ea080803    ....    AND      r8,r8,r3
        0x08002f0a:    ea480807    H...    ORR      r8,r8,r7
        0x08002f0e:    f8208025     .%.    STRH     r8,[r0,r5,LSL #2]
        0x08002f12:    780f        .x      LDRB     r7,[r1,#0]
        0x08002f14:    f8305027    0.'P    LDRH     r5,[r0,r7,LSL #2]
        0x08002f18:    066d        m.      LSLS     r5,r5,#25
        0x08002f1a:    d506        ..      BPL      0x8002f2a ; USB_ActivateEndpoint + 578
        0x08002f1c:    f8305027    0.'P    LDRH     r5,[r0,r7,LSL #2]
        0x08002f20:    401d        .@      ANDS     r5,r5,r3
        0x08002f22:    ea45050c    E...    ORR      r5,r5,r12
        0x08002f26:    f8205027     .'P    STRH     r5,[r0,r7,LSL #2]
        0x08002f2a:    780d        .x      LDRB     r5,[r1,#0]
        0x08002f2c:    f8303025    0.%0    LDRH     r3,[r0,r5,LSL #2]
        0x08002f30:    ea030309    ....    AND      r3,r3,r9
        0x08002f34:    f4835340    ..@S    EOR      r3,r3,#0x3000
        0x08002f38:    4313        .C      ORRS     r3,r3,r2
        0x08002f3a:    f8203025     .%0    STRH     r3,[r0,r5,LSL #2]
        0x08002f3e:    e78e        ..      B        0x8002e5e ; USB_ActivateEndpoint + 374
    i.USB_CoreInit
    USB_CoreInit
        0x08002f40:    2000        .       MOVS     r0,#0
        0x08002f42:    4770        pG      BX       lr
    i.USB_DeactivateEndpoint
    USB_DeactivateEndpoint
        0x08002f44:    e92d43f0    -..C    PUSH     {r4-r9,lr}
        0x08002f48:    f891800c    ....    LDRB     r8,[r1,#0xc]
        0x08002f4c:    784f        Ox      LDRB     r7,[r1,#1]
        0x08002f4e:    780a        .x      LDRB     r2,[r1,#0]
        0x08002f50:    f6487cbf    H..|    MOV      r12,#0x8fbf
        0x08002f54:    f64b798f    K..y    MOV      r9,#0xbf8f
        0x08002f58:    f2480380    H...    MOV      r3,#0x8080
        0x08002f5c:    f24805c0    H...    MOV      r5,#0x80c0
        0x08002f60:    f24c0680    L...    MOV      r6,#0xc080
        0x08002f64:    f648748f    H..t    MOV      r4,#0x8f8f
        0x08002f68:    f1b80f00    ....    CMP      r8,#0
        0x08002f6c:    d028        (.      BEQ      0x8002fc0 ; USB_DeactivateEndpoint + 124
        0x08002f6e:    2f00        ./      CMP      r7,#0
        0x08002f70:    f8307022    0."p    LDRH     r7,[r0,r2,LSL #2]
        0x08002f74:    ea4f4747    O.GG    LSL      r7,r7,#17
        0x08002f78:    d048        H.      BEQ      0x800300c ; USB_DeactivateEndpoint + 200
        0x08002f7a:    2f00        ./      CMP      r7,#0
        0x08002f7c:    da05        ..      BGE      0x8002f8a ; USB_DeactivateEndpoint + 70
        0x08002f7e:    f8307022    0."p    LDRH     r7,[r0,r2,LSL #2]
        0x08002f82:    4027        '@      ANDS     r7,r7,r4
        0x08002f84:    4337        7C      ORRS     r7,r7,r6
        0x08002f86:    f8207022     ."p    STRH     r7,[r0,r2,LSL #2]
        0x08002f8a:    780a        .x      LDRB     r2,[r1,#0]
        0x08002f8c:    f8307022    0."p    LDRH     r7,[r0,r2,LSL #2]
        0x08002f90:    067f        ..      LSLS     r7,r7,#25
        0x08002f92:    d505        ..      BPL      0x8002fa0 ; USB_DeactivateEndpoint + 92
        0x08002f94:    f8307022    0."p    LDRH     r7,[r0,r2,LSL #2]
        0x08002f98:    4027        '@      ANDS     r7,r7,r4
        0x08002f9a:    432f        /C      ORRS     r7,r7,r5
        0x08002f9c:    f8207022     ."p    STRH     r7,[r0,r2,LSL #2]
        0x08002fa0:    780d        .x      LDRB     r5,[r1,#0]
        0x08002fa2:    f8302025    0.%     LDRH     r2,[r0,r5,LSL #2]
        0x08002fa6:    4022        "@      ANDS     r2,r2,r4
        0x08002fa8:    4332        2C      ORRS     r2,r2,r6
        0x08002faa:    f8202025     .%     STRH     r2,[r0,r5,LSL #2]
        0x08002fae:    780c        .x      LDRB     r4,[r1,#0]
        0x08002fb0:    f8302024    0.$     LDRH     r2,[r0,r4,LSL #2]
        0x08002fb4:    ea02020c    ....    AND      r2,r2,r12
        0x08002fb8:    431a        .C      ORRS     r2,r2,r3
        0x08002fba:    f8202024     .$     STRH     r2,[r0,r4,LSL #2]
        0x08002fbe:    e01a        ..      B        0x8002ff6 ; USB_DeactivateEndpoint + 178
        0x08002fc0:    b17f        ..      CBZ      r7,0x8002fe2 ; USB_DeactivateEndpoint + 158
        0x08002fc2:    f8306022    0."`    LDRH     r6,[r0,r2,LSL #2]
        0x08002fc6:    0676        v.      LSLS     r6,r6,#25
        0x08002fc8:    d505        ..      BPL      0x8002fd6 ; USB_DeactivateEndpoint + 146
        0x08002fca:    f8306022    0."`    LDRH     r6,[r0,r2,LSL #2]
        0x08002fce:    4026        &@      ANDS     r6,r6,r4
        0x08002fd0:    432e        .C      ORRS     r6,r6,r5
        0x08002fd2:    f8206022     ."`    STRH     r6,[r0,r2,LSL #2]
        0x08002fd6:    780a        .x      LDRB     r2,[r1,#0]
        0x08002fd8:    f8301022    0.".    LDRH     r1,[r0,r2,LSL #2]
        0x08002fdc:    ea01010c    ....    AND      r1,r1,r12
        0x08002fe0:    e00e        ..      B        0x8003000 ; USB_DeactivateEndpoint + 188
        0x08002fe2:    f8305022    0."P    LDRH     r5,[r0,r2,LSL #2]
        0x08002fe6:    046d        m.      LSLS     r5,r5,#17
        0x08002fe8:    d505        ..      BPL      0x8002ff6 ; USB_DeactivateEndpoint + 178
        0x08002fea:    f8305022    0."P    LDRH     r5,[r0,r2,LSL #2]
        0x08002fee:    4025        %@      ANDS     r5,r5,r4
        0x08002ff0:    4335        5C      ORRS     r5,r5,r6
        0x08002ff2:    f8205022     ."P    STRH     r5,[r0,r2,LSL #2]
        0x08002ff6:    780a        .x      LDRB     r2,[r1,#0]
        0x08002ff8:    f8301022    0.".    LDRH     r1,[r0,r2,LSL #2]
        0x08002ffc:    ea010109    ....    AND      r1,r1,r9
        0x08003000:    4319        .C      ORRS     r1,r1,r3
        0x08003002:    f8201022     .".    STRH     r1,[r0,r2,LSL #2]
        0x08003006:    2000        .       MOVS     r0,#0
        0x08003008:    e8bd83f0    ....    POP      {r4-r9,pc}
        0x0800300c:    2f00        ./      CMP      r7,#0
        0x0800300e:    da05        ..      BGE      0x800301c ; USB_DeactivateEndpoint + 216
        0x08003010:    f8307022    0."p    LDRH     r7,[r0,r2,LSL #2]
        0x08003014:    4027        '@      ANDS     r7,r7,r4
        0x08003016:    4337        7C      ORRS     r7,r7,r6
        0x08003018:    f8207022     ."p    STRH     r7,[r0,r2,LSL #2]
        0x0800301c:    780a        .x      LDRB     r2,[r1,#0]
        0x0800301e:    f8306022    0."`    LDRH     r6,[r0,r2,LSL #2]
        0x08003022:    0676        v.      LSLS     r6,r6,#25
        0x08003024:    d505        ..      BPL      0x8003032 ; USB_DeactivateEndpoint + 238
        0x08003026:    f8306022    0."`    LDRH     r6,[r0,r2,LSL #2]
        0x0800302a:    4026        &@      ANDS     r6,r6,r4
        0x0800302c:    432e        .C      ORRS     r6,r6,r5
        0x0800302e:    f8206022     ."`    STRH     r6,[r0,r2,LSL #2]
        0x08003032:    780e        .x      LDRB     r6,[r1,#0]
        0x08003034:    f8302026    0.&     LDRH     r2,[r0,r6,LSL #2]
        0x08003038:    4022        "@      ANDS     r2,r2,r4
        0x0800303a:    432a        *C      ORRS     r2,r2,r5
        0x0800303c:    f8202026     .&     STRH     r2,[r0,r6,LSL #2]
        0x08003040:    780c        .x      LDRB     r4,[r1,#0]
        0x08003042:    f8302024    0.$     LDRH     r2,[r0,r4,LSL #2]
        0x08003046:    ea020209    ....    AND      r2,r2,r9
        0x0800304a:    431a        .C      ORRS     r2,r2,r3
        0x0800304c:    f8202024     .$     STRH     r2,[r0,r4,LSL #2]
        0x08003050:    e7c1        ..      B        0x8002fd6 ; USB_DeactivateEndpoint + 146
    i.USB_DevConnect
    USB_DevConnect
        0x08003052:    2000        .       MOVS     r0,#0
        0x08003054:    4770        pG      BX       lr
    i.USB_DevDisconnect
    USB_DevDisconnect
        0x08003056:    2000        .       MOVS     r0,#0
        0x08003058:    4770        pG      BX       lr
    i.USB_DevInit
    USB_DevInit
        0x0800305a:    2101        .!      MOVS     r1,#1
        0x0800305c:    f8201f40     .@.    STRH     r1,[r0,#0x40]!
        0x08003060:    2100        .!      MOVS     r1,#0
        0x08003062:    8001        ..      STRH     r1,[r0,#0]
        0x08003064:    8081        ..      STRH     r1,[r0,#4]
        0x08003066:    8201        ..      STRH     r1,[r0,#0x10]
        0x08003068:    4608        .F      MOV      r0,r1
        0x0800306a:    4770        pG      BX       lr
    i.USB_DisableGlobalInt
    USB_DisableGlobalInt
        0x0800306c:    f8301f40    0.@.    LDRH     r1,[r0,#0x40]!
        0x08003070:    f421413f    !.?A    BIC      r1,r1,#0xbf00
        0x08003074:    8001        ..      STRH     r1,[r0,#0]
        0x08003076:    2000        .       MOVS     r0,#0
        0x08003078:    4770        pG      BX       lr
    i.USB_EP0_OutStart
    USB_EP0_OutStart
        0x0800307a:    2000        .       MOVS     r0,#0
        0x0800307c:    4770        pG      BX       lr
    i.USB_EPClearStall
    USB_EPClearStall
        0x0800307e:    b530        0.      PUSH     {r4,r5,lr}
        0x08003080:    7b0a        .{      LDRB     r2,[r1,#0xc]
        0x08003082:    bbb2        ..      CBNZ     r2,0x80030f2 ; USB_EPClearStall + 116
        0x08003084:    784a        Jx      LDRB     r2,[r1,#1]
        0x08003086:    f648758f    H..u    MOV      r5,#0x8f8f
        0x0800308a:    f2480480    H...    MOV      r4,#0x8080
        0x0800308e:    b1c2        ..      CBZ      r2,0x80030c2 ; USB_EPClearStall + 68
        0x08003090:    780b        .x      LDRB     r3,[r1,#0]
        0x08003092:    f8302023    0.#     LDRH     r2,[r0,r3,LSL #2]
        0x08003096:    0652        R.      LSLS     r2,r2,#25
        0x08003098:    d507        ..      BPL      0x80030aa ; USB_EPClearStall + 44
        0x0800309a:    f8302023    0.#     LDRH     r2,[r0,r3,LSL #2]
        0x0800309e:    402a        *@      ANDS     r2,r2,r5
        0x080030a0:    f24805c0    H...    MOV      r5,#0x80c0
        0x080030a4:    432a        *C      ORRS     r2,r2,r5
        0x080030a6:    f8202023     .#     STRH     r2,[r0,r3,LSL #2]
        0x080030aa:    78ca        .x      LDRB     r2,[r1,#3]
        0x080030ac:    2a01        .*      CMP      r2,#1
        0x080030ae:    d020         .      BEQ      0x80030f2 ; USB_EPClearStall + 116
        0x080030b0:    780a        .x      LDRB     r2,[r1,#0]
        0x080030b2:    f8301022    0.".    LDRH     r1,[r0,r2,LSL #2]
        0x080030b6:    f64873bf    H..s    MOV      r3,#0x8fbf
        0x080030ba:    4019        .@      ANDS     r1,r1,r3
        0x080030bc:    f0810120    .. .    EOR      r1,r1,#0x20
        0x080030c0:    e014        ..      B        0x80030ec ; USB_EPClearStall + 110
        0x080030c2:    780a        .x      LDRB     r2,[r1,#0]
        0x080030c4:    f8303022    0."0    LDRH     r3,[r0,r2,LSL #2]
        0x080030c8:    045b        [.      LSLS     r3,r3,#17
        0x080030ca:    d507        ..      BPL      0x80030dc ; USB_EPClearStall + 94
        0x080030cc:    f8303022    0."0    LDRH     r3,[r0,r2,LSL #2]
        0x080030d0:    402b        +@      ANDS     r3,r3,r5
        0x080030d2:    f24c0580    L...    MOV      r5,#0xc080
        0x080030d6:    432b        +C      ORRS     r3,r3,r5
        0x080030d8:    f8203022     ."0    STRH     r3,[r0,r2,LSL #2]
        0x080030dc:    780a        .x      LDRB     r2,[r1,#0]
        0x080030de:    f8301022    0.".    LDRH     r1,[r0,r2,LSL #2]
        0x080030e2:    f64b738f    K..s    MOV      r3,#0xbf8f
        0x080030e6:    4019        .@      ANDS     r1,r1,r3
        0x080030e8:    f4815140    ..@Q    EOR      r1,r1,#0x3000
        0x080030ec:    4321        !C      ORRS     r1,r1,r4
        0x080030ee:    f8201022     .".    STRH     r1,[r0,r2,LSL #2]
        0x080030f2:    2000        .       MOVS     r0,#0
        0x080030f4:    bd30        0.      POP      {r4,r5,pc}
    i.USB_EPSetStall
    USB_EPSetStall
        0x080030f6:    b510        ..      PUSH     {r4,lr}
        0x080030f8:    784a        Jx      LDRB     r2,[r1,#1]
        0x080030fa:    7809        .x      LDRB     r1,[r1,#0]
        0x080030fc:    2a00        .*      CMP      r2,#0
        0x080030fe:    f2480380    H...    MOV      r3,#0x8080
        0x08003102:    f8302021    0.!     LDRH     r2,[r0,r1,LSL #2]
        0x08003106:    d005        ..      BEQ      0x8003114 ; USB_EPSetStall + 30
        0x08003108:    f64874bf    H..t    MOV      r4,#0x8fbf
        0x0800310c:    4022        "@      ANDS     r2,r2,r4
        0x0800310e:    f0820210    ....    EOR      r2,r2,#0x10
        0x08003112:    e004        ..      B        0x800311e ; USB_EPSetStall + 40
        0x08003114:    f64b748f    K..t    MOV      r4,#0xbf8f
        0x08003118:    4022        "@      ANDS     r2,r2,r4
        0x0800311a:    f4825280    ...R    EOR      r2,r2,#0x1000
        0x0800311e:    431a        .C      ORRS     r2,r2,r3
        0x08003120:    f8202021     .!     STRH     r2,[r0,r1,LSL #2]
        0x08003124:    2000        .       MOVS     r0,#0
        0x08003126:    bd10        ..      POP      {r4,pc}
    i.USB_EPStartXfer
    USB_EPStartXfer
        0x08003128:    e92d47f0    -..G    PUSH     {r4-r10,lr}
        0x0800312c:    460e        .F      MOV      r6,r1
        0x0800312e:    784b        Kx      LDRB     r3,[r1,#1]
        0x08003130:    7b09        .{      LDRB     r1,[r1,#0xc]
        0x08003132:    4604        .F      MOV      r4,r0
        0x08003134:    f04f0900    O...    MOV      r9,#0
        0x08003138:    f648728f    H..r    MOV      r2,#0x8f8f
        0x0800313c:    f2480a80    H...    MOV      r10,#0x8080
        0x08003140:    f64f77ff    O..w    MOV      r7,#0xffff
        0x08003144:    f44f4800    O..H    MOV      r8,#0x8000
        0x08003148:    2b01        .+      CMP      r3,#1
        0x0800314a:    d009        ..      BEQ      0x8003160 ; USB_EPStartXfer + 56
        0x0800314c:    2900        .)      CMP      r1,#0
        0x0800314e:    d06e        n.      BEQ      0x800322e ; USB_EPStartXfer + 262
        0x08003150:    78f0        .x      LDRB     r0,[r6,#3]
        0x08003152:    2802        .(      CMP      r0,#2
        0x08003154:    d06c        l.      BEQ      0x8003230 ; USB_EPStartXfer + 264
        0x08003156:    2801        .(      CMP      r0,#1
        0x08003158:    d06b        k.      BEQ      0x8003232 ; USB_EPStartXfer + 266
        0x0800315a:    2001        .       MOVS     r0,#1
        0x0800315c:    e8bd87f0    ....    POP      {r4-r10,pc}
        0x08003160:    69b5        .i      LDR      r5,[r6,#0x18]
        0x08003162:    6930        0i      LDR      r0,[r6,#0x10]
        0x08003164:    4285        .B      CMP      r5,r0
        0x08003166:    d900        ..      BLS      0x800316a ; USB_EPStartXfer + 66
        0x08003168:    4605        .F      MOV      r5,r0
        0x0800316a:    b1c9        ..      CBZ      r1,0x80031a0 ; USB_EPStartXfer + 120
        0x0800316c:    78f1        .x      LDRB     r1,[r6,#3]
        0x0800316e:    f2481380    H...    MOV      r3,#0x8180
        0x08003172:    2902        .)      CMP      r1,#2
        0x08003174:    d023        #.      BEQ      0x80031be ; USB_EPStartXfer + 150
        0x08003176:    7831        1x      LDRB     r1,[r6,#0]
        0x08003178:    f8340021    4.!.    LDRH     r0,[r4,r1,LSL #2]
        0x0800317c:    4010        .@      ANDS     r0,r0,r2
        0x0800317e:    4318        .C      ORRS     r0,r0,r3
        0x08003180:    f8240021    $.!.    STRH     r0,[r4,r1,LSL #2]
        0x08003184:    6a30        0j      LDR      r0,[r6,#0x20]
        0x08003186:    1b40        @.      SUBS     r0,r0,r5
        0x08003188:    6230        0b      STR      r0,[r6,#0x20]
        0x0800318a:    7830        0x      LDRB     r0,[r6,#0]
        0x0800318c:    f8341020    4. .    LDRH     r1,[r4,r0,LSL #2]
        0x08003190:    0649        I.      LSLS     r1,r1,#25
        0x08003192:    7871        qx      LDRB     r1,[r6,#1]
        0x08003194:    d57e        ~.      BPL      0x8003294 ; USB_EPStartXfer + 364
        0x08003196:    2900        .)      CMP      r1,#0
        0x08003198:    d07d        }.      BEQ      0x8003296 ; USB_EPStartXfer + 366
        0x0800319a:    2901        .)      CMP      r1,#1
        0x0800319c:    d07c        |.      BEQ      0x8003298 ; USB_EPStartXfer + 368
        0x0800319e:    e13f        ?.      B        0x8003420 ; USB_EPStartXfer + 760
        0x080031a0:    b2ab        ..      UXTH     r3,r5
        0x080031a2:    88f2        ..      LDRH     r2,[r6,#6]
        0x080031a4:    4620         F      MOV      r0,r4
        0x080031a6:    6971        qi      LDR      r1,[r6,#0x14]
        0x080031a8:    f000faf6    ....    BL       USB_WritePMA ; 0x8003798
        0x080031ac:    f8b40050    ..P.    LDRH     r0,[r4,#0x50]
        0x080031b0:    7831        1x      LDRB     r1,[r6,#0]
        0x080031b2:    4420         D      ADD      r0,r0,r4
        0x080031b4:    eb001001    ....    ADD      r0,r0,r1,LSL #4
        0x080031b8:    f8a05404    ...T    STRH     r5,[r0,#0x404]
        0x080031bc:    e0ea        ..      B        0x8003394 ; USB_EPStartXfer + 620
        0x080031be:    6a31        1j      LDR      r1,[r6,#0x20]
        0x080031c0:    4281        .B      CMP      r1,r0
        0x080031c2:    d96a        j.      BLS      0x800329a ; USB_EPStartXfer + 370
        0x080031c4:    7831        1x      LDRB     r1,[r6,#0]
        0x080031c6:    f8340021    4.!.    LDRH     r0,[r4,r1,LSL #2]
        0x080031ca:    4010        .@      ANDS     r0,r0,r2
        0x080031cc:    4318        .C      ORRS     r0,r0,r3
        0x080031ce:    f8240021    $.!.    STRH     r0,[r4,r1,LSL #2]
        0x080031d2:    6a30        0j      LDR      r0,[r6,#0x20]
        0x080031d4:    1b40        @.      SUBS     r0,r0,r5
        0x080031d6:    6230        0b      STR      r0,[r6,#0x20]
        0x080031d8:    7830        0x      LDRB     r0,[r6,#0]
        0x080031da:    f8341020    4. .    LDRH     r1,[r4,r0,LSL #2]
        0x080031de:    0649        I.      LSLS     r1,r1,#25
        0x080031e0:    7871        qx      LDRB     r1,[r6,#1]
        0x080031e2:    d56c        l.      BPL      0x80032be ; USB_EPStartXfer + 406
        0x080031e4:    b111        ..      CBZ      r1,0x80031ec ; USB_EPStartXfer + 196
        0x080031e6:    2901        .)      CMP      r1,#1
        0x080031e8:    d024        $.      BEQ      0x8003234 ; USB_EPStartXfer + 268
        0x080031ea:    e02a        *.      B        0x8003242 ; USB_EPStartXfer + 282
        0x080031ec:    f8b41050    ..P.    LDRH     r1,[r4,#0x50]
        0x080031f0:    4421        !D      ADD      r1,r1,r4
        0x080031f2:    eb011000    ....    ADD      r0,r1,r0,LSL #4
        0x080031f6:    f200400c    ...@    ADD      r0,r0,#0x40c
        0x080031fa:    b14d        M.      CBZ      r5,0x8003210 ; USB_EPStartXfer + 232
        0x080031fc:    2d3e        >-      CMP      r5,#0x3e
        0x080031fe:    d80f        ..      BHI      0x8003220 ; USB_EPStartXfer + 248
        0x08003200:    0869        i.      LSRS     r1,r5,#1
        0x08003202:    07ea        ..      LSLS     r2,r5,#31
        0x08003204:    d000        ..      BEQ      0x8003208 ; USB_EPStartXfer + 224
        0x08003206:    1c49        I.      ADDS     r1,r1,#1
        0x08003208:    ea072181    ...!    AND      r1,r7,r1,LSL #10
        0x0800320c:    8001        ..      STRH     r1,[r0,#0]
        0x0800320e:    e018        ..      B        0x8003242 ; USB_EPStartXfer + 282
        0x08003210:    8801        ..      LDRH     r1,[r0,#0]
        0x08003212:    f42141f8    !..A    BIC      r1,r1,#0x7c00
        0x08003216:    8001        ..      STRH     r1,[r0,#0]
        0x08003218:    8801        ..      LDRH     r1,[r0,#0]
        0x0800321a:    f4414100    A..A    ORR      r1,r1,#0x8000
        0x0800321e:    e7f5        ..      B        0x800320c ; USB_EPStartXfer + 228
        0x08003220:    0969        i.      LSRS     r1,r5,#5
        0x08003222:    06ea        ..      LSLS     r2,r5,#27
        0x08003224:    d100        ..      BNE      0x8003228 ; USB_EPStartXfer + 256
        0x08003226:    1e49        I.      SUBS     r1,r1,#1
        0x08003228:    ea482181    H..!    ORR      r1,r8,r1,LSL #10
        0x0800322c:    e7ee        ..      B        0x800320c ; USB_EPStartXfer + 228
        0x0800322e:    e19c        ..      B        0x800356a ; USB_EPStartXfer + 1090
        0x08003230:    e1bc        ..      B        0x80035ac ; USB_EPStartXfer + 1156
        0x08003232:    e226        &.      B        0x8003682 ; USB_EPStartXfer + 1370
        0x08003234:    f8b42050    ..P     LDRH     r2,[r4,#0x50]
        0x08003238:    1911        ..      ADDS     r1,r2,r4
        0x0800323a:    eb011000    ....    ADD      r0,r1,r0,LSL #4
        0x0800323e:    f8a0540c    ...T    STRH     r5,[r0,#0x40c]
        0x08003242:    8972        r.      LDRH     r2,[r6,#0xa]
        0x08003244:    b2ab        ..      UXTH     r3,r5
        0x08003246:    4620         F      MOV      r0,r4
        0x08003248:    6971        qi      LDR      r1,[r6,#0x14]
        0x0800324a:    f000faa5    ....    BL       USB_WritePMA ; 0x8003798
        0x0800324e:    6970        pi      LDR      r0,[r6,#0x14]
        0x08003250:    4428        (D      ADD      r0,r0,r5
        0x08003252:    6170        pa      STR      r0,[r6,#0x14]
        0x08003254:    6931        1i      LDR      r1,[r6,#0x10]
        0x08003256:    6a30        0j      LDR      r0,[r6,#0x20]
        0x08003258:    4288        .B      CMP      r0,r1
        0x0800325a:    d902        ..      BLS      0x8003262 ; USB_EPStartXfer + 314
        0x0800325c:    1b40        @.      SUBS     r0,r0,r5
        0x0800325e:    6230        0b      STR      r0,[r6,#0x20]
        0x08003260:    e002        ..      B        0x8003268 ; USB_EPStartXfer + 320
        0x08003262:    4605        .F      MOV      r5,r0
        0x08003264:    f8c69020    .. .    STR      r9,[r6,#0x20]
        0x08003268:    7870        px      LDRB     r0,[r6,#1]
        0x0800326a:    2800        .(      CMP      r0,#0
        0x0800326c:    d17c        |.      BNE      0x8003368 ; USB_EPStartXfer + 576
        0x0800326e:    f8b40050    ..P.    LDRH     r0,[r4,#0x50]
        0x08003272:    7831        1x      LDRB     r1,[r6,#0]
        0x08003274:    4420         D      ADD      r0,r0,r4
        0x08003276:    eb001001    ....    ADD      r0,r0,r1,LSL #4
        0x0800327a:    f2004004    ...@    ADD      r0,r0,#0x404
        0x0800327e:    b16d        m.      CBZ      r5,0x800329c ; USB_EPStartXfer + 372
        0x08003280:    2d3e        >-      CMP      r5,#0x3e
        0x08003282:    d813        ..      BHI      0x80032ac ; USB_EPStartXfer + 388
        0x08003284:    0869        i.      LSRS     r1,r5,#1
        0x08003286:    07ea        ..      LSLS     r2,r5,#31
        0x08003288:    d000        ..      BEQ      0x800328c ; USB_EPStartXfer + 356
        0x0800328a:    1c49        I.      ADDS     r1,r1,#1
        0x0800328c:    ea072181    ...!    AND      r1,r7,r1,LSL #10
        0x08003290:    8001        ..      STRH     r1,[r0,#0]
        0x08003292:    e012        ..      B        0x80032ba ; USB_EPStartXfer + 402
        0x08003294:    e101        ..      B        0x800349a ; USB_EPStartXfer + 882
        0x08003296:    e09b        ..      B        0x80033d0 ; USB_EPStartXfer + 680
        0x08003298:    e0bb        ..      B        0x8003412 ; USB_EPStartXfer + 746
        0x0800329a:    e084        ..      B        0x80033a6 ; USB_EPStartXfer + 638
        0x0800329c:    8801        ..      LDRH     r1,[r0,#0]
        0x0800329e:    f42141f8    !..A    BIC      r1,r1,#0x7c00
        0x080032a2:    8001        ..      STRH     r1,[r0,#0]
        0x080032a4:    8801        ..      LDRH     r1,[r0,#0]
        0x080032a6:    f4414100    A..A    ORR      r1,r1,#0x8000
        0x080032aa:    e7f1        ..      B        0x8003290 ; USB_EPStartXfer + 360
        0x080032ac:    0969        i.      LSRS     r1,r5,#5
        0x080032ae:    06ea        ..      LSLS     r2,r5,#27
        0x080032b0:    d100        ..      BNE      0x80032b4 ; USB_EPStartXfer + 396
        0x080032b2:    1e49        I.      SUBS     r1,r1,#1
        0x080032b4:    ea482181    H..!    ORR      r1,r8,r1,LSL #10
        0x080032b8:    e7ea        ..      B        0x8003290 ; USB_EPStartXfer + 360
        0x080032ba:    8932        2.      LDRH     r2,[r6,#8]
        0x080032bc:    e065        e.      B        0x800338a ; USB_EPStartXfer + 610
        0x080032be:    b111        ..      CBZ      r1,0x80032c6 ; USB_EPStartXfer + 414
        0x080032c0:    2901        .)      CMP      r1,#1
        0x080032c2:    d021        !.      BEQ      0x8003308 ; USB_EPStartXfer + 480
        0x080032c4:    e027        '.      B        0x8003316 ; USB_EPStartXfer + 494
        0x080032c6:    f8b41050    ..P.    LDRH     r1,[r4,#0x50]
        0x080032ca:    4421        !D      ADD      r1,r1,r4
        0x080032cc:    eb011000    ....    ADD      r0,r1,r0,LSL #4
        0x080032d0:    f2004004    ...@    ADD      r0,r0,#0x404
        0x080032d4:    b14d        M.      CBZ      r5,0x80032ea ; USB_EPStartXfer + 450
        0x080032d6:    2d3e        >-      CMP      r5,#0x3e
        0x080032d8:    d80f        ..      BHI      0x80032fa ; USB_EPStartXfer + 466
        0x080032da:    0869        i.      LSRS     r1,r5,#1
        0x080032dc:    07ea        ..      LSLS     r2,r5,#31
        0x080032de:    d000        ..      BEQ      0x80032e2 ; USB_EPStartXfer + 442
        0x080032e0:    1c49        I.      ADDS     r1,r1,#1
        0x080032e2:    ea072181    ...!    AND      r1,r7,r1,LSL #10
        0x080032e6:    8001        ..      STRH     r1,[r0,#0]
        0x080032e8:    e015        ..      B        0x8003316 ; USB_EPStartXfer + 494
        0x080032ea:    8801        ..      LDRH     r1,[r0,#0]
        0x080032ec:    f42141f8    !..A    BIC      r1,r1,#0x7c00
        0x080032f0:    8001        ..      STRH     r1,[r0,#0]
        0x080032f2:    8801        ..      LDRH     r1,[r0,#0]
        0x080032f4:    f4414100    A..A    ORR      r1,r1,#0x8000
        0x080032f8:    e7f5        ..      B        0x80032e6 ; USB_EPStartXfer + 446
        0x080032fa:    0969        i.      LSRS     r1,r5,#5
        0x080032fc:    06ea        ..      LSLS     r2,r5,#27
        0x080032fe:    d100        ..      BNE      0x8003302 ; USB_EPStartXfer + 474
        0x08003300:    1e49        I.      SUBS     r1,r1,#1
        0x08003302:    ea482181    H..!    ORR      r1,r8,r1,LSL #10
        0x08003306:    e7ee        ..      B        0x80032e6 ; USB_EPStartXfer + 446
        0x08003308:    f8b41050    ..P.    LDRH     r1,[r4,#0x50]
        0x0800330c:    4421        !D      ADD      r1,r1,r4
        0x0800330e:    eb011000    ....    ADD      r0,r1,r0,LSL #4
        0x08003312:    f8a05404    ...T    STRH     r5,[r0,#0x404]
        0x08003316:    8932        2.      LDRH     r2,[r6,#8]
        0x08003318:    b2ab        ..      UXTH     r3,r5
        0x0800331a:    4620         F      MOV      r0,r4
        0x0800331c:    6971        qi      LDR      r1,[r6,#0x14]
        0x0800331e:    f000fa3b    ..;.    BL       USB_WritePMA ; 0x8003798
        0x08003322:    6970        pi      LDR      r0,[r6,#0x14]
        0x08003324:    4428        (D      ADD      r0,r0,r5
        0x08003326:    6170        pa      STR      r0,[r6,#0x14]
        0x08003328:    6931        1i      LDR      r1,[r6,#0x10]
        0x0800332a:    6a30        0j      LDR      r0,[r6,#0x20]
        0x0800332c:    4288        .B      CMP      r0,r1
        0x0800332e:    d902        ..      BLS      0x8003336 ; USB_EPStartXfer + 526
        0x08003330:    1b40        @.      SUBS     r0,r0,r5
        0x08003332:    6230        0b      STR      r0,[r6,#0x20]
        0x08003334:    e002        ..      B        0x800333c ; USB_EPStartXfer + 532
        0x08003336:    4605        .F      MOV      r5,r0
        0x08003338:    f8c69020    .. .    STR      r9,[r6,#0x20]
        0x0800333c:    7870        px      LDRB     r0,[r6,#1]
        0x0800333e:    2800        .(      CMP      r0,#0
        0x08003340:    d17e        ~.      BNE      0x8003440 ; USB_EPStartXfer + 792
        0x08003342:    f8b40050    ..P.    LDRH     r0,[r4,#0x50]
        0x08003346:    7831        1x      LDRB     r1,[r6,#0]
        0x08003348:    4420         D      ADD      r0,r0,r4
        0x0800334a:    eb001001    ....    ADD      r0,r0,r1,LSL #4
        0x0800334e:    f200400c    ...@    ADD      r0,r0,#0x40c
        0x08003352:    b155        U.      CBZ      r5,0x800336a ; USB_EPStartXfer + 578
        0x08003354:    2d3e        >-      CMP      r5,#0x3e
        0x08003356:    d810        ..      BHI      0x800337a ; USB_EPStartXfer + 594
        0x08003358:    0869        i.      LSRS     r1,r5,#1
        0x0800335a:    07ea        ..      LSLS     r2,r5,#31
        0x0800335c:    d000        ..      BEQ      0x8003360 ; USB_EPStartXfer + 568
        0x0800335e:    1c49        I.      ADDS     r1,r1,#1
        0x08003360:    ea072181    ...!    AND      r1,r7,r1,LSL #10
        0x08003364:    8001        ..      STRH     r1,[r0,#0]
        0x08003366:    e00f        ..      B        0x8003388 ; USB_EPStartXfer + 608
        0x08003368:    e072        r.      B        0x8003450 ; USB_EPStartXfer + 808
        0x0800336a:    8801        ..      LDRH     r1,[r0,#0]
        0x0800336c:    f42141f8    !..A    BIC      r1,r1,#0x7c00
        0x08003370:    8001        ..      STRH     r1,[r0,#0]
        0x08003372:    8801        ..      LDRH     r1,[r0,#0]
        0x08003374:    f4414100    A..A    ORR      r1,r1,#0x8000
        0x08003378:    e7f4        ..      B        0x8003364 ; USB_EPStartXfer + 572
        0x0800337a:    0969        i.      LSRS     r1,r5,#5
        0x0800337c:    06ea        ..      LSLS     r2,r5,#27
        0x0800337e:    d100        ..      BNE      0x8003382 ; USB_EPStartXfer + 602
        0x08003380:    1e49        I.      SUBS     r1,r1,#1
        0x08003382:    ea482181    H..!    ORR      r1,r8,r1,LSL #10
        0x08003386:    e7ed        ..      B        0x8003364 ; USB_EPStartXfer + 572
        0x08003388:    8972        r.      LDRH     r2,[r6,#0xa]
        0x0800338a:    b2ab        ..      UXTH     r3,r5
        0x0800338c:    4620         F      MOV      r0,r4
        0x0800338e:    6971        qi      LDR      r1,[r6,#0x14]
        0x08003390:    f000fa02    ....    BL       USB_WritePMA ; 0x8003798
        0x08003394:    7831        1x      LDRB     r1,[r6,#0]
        0x08003396:    f8340021    4.!.    LDRH     r0,[r4,r1,LSL #2]
        0x0800339a:    f64872bf    H..r    MOV      r2,#0x8fbf
        0x0800339e:    4010        .@      ANDS     r0,r0,r2
        0x080033a0:    f0800030    ..0.    EOR      r0,r0,#0x30
        0x080033a4:    e1c0        ..      B        0x8003728 ; USB_EPStartXfer + 1536
        0x080033a6:    7832        2x      LDRB     r2,[r6,#0]
        0x080033a8:    f8340022    4.".    LDRH     r0,[r4,r2,LSL #2]
        0x080033ac:    f648638f    H..c    MOV      r3,#0x8e8f
        0x080033b0:    4018        .@      ANDS     r0,r0,r3
        0x080033b2:    ea40000a    @...    ORR      r0,r0,r10
        0x080033b6:    f8240022    $.".    STRH     r0,[r4,r2,LSL #2]
        0x080033ba:    f8b40050    ..P.    LDRH     r0,[r4,#0x50]
        0x080033be:    7832        2x      LDRB     r2,[r6,#0]
        0x080033c0:    4420         D      ADD      r0,r0,r4
        0x080033c2:    eb001002    ....    ADD      r0,r0,r2,LSL #4
        0x080033c6:    b28b        ..      UXTH     r3,r1
        0x080033c8:    f8a03404    ...4    STRH     r3,[r0,#0x404]
        0x080033cc:    8932        2.      LDRH     r2,[r6,#8]
        0x080033ce:    e7dd        ..      B        0x800338c ; USB_EPStartXfer + 612
        0x080033d0:    f8b41050    ..P.    LDRH     r1,[r4,#0x50]
        0x080033d4:    4421        !D      ADD      r1,r1,r4
        0x080033d6:    eb011000    ....    ADD      r0,r1,r0,LSL #4
        0x080033da:    f200400c    ...@    ADD      r0,r0,#0x40c
        0x080033de:    b14d        M.      CBZ      r5,0x80033f4 ; USB_EPStartXfer + 716
        0x080033e0:    2d3e        >-      CMP      r5,#0x3e
        0x080033e2:    d80f        ..      BHI      0x8003404 ; USB_EPStartXfer + 732
        0x080033e4:    0869        i.      LSRS     r1,r5,#1
        0x080033e6:    07ea        ..      LSLS     r2,r5,#31
        0x080033e8:    d000        ..      BEQ      0x80033ec ; USB_EPStartXfer + 708
        0x080033ea:    1c49        I.      ADDS     r1,r1,#1
        0x080033ec:    ea072181    ...!    AND      r1,r7,r1,LSL #10
        0x080033f0:    8001        ..      STRH     r1,[r0,#0]
        0x080033f2:    e015        ..      B        0x8003420 ; USB_EPStartXfer + 760
        0x080033f4:    8801        ..      LDRH     r1,[r0,#0]
        0x080033f6:    f42141f8    !..A    BIC      r1,r1,#0x7c00
        0x080033fa:    8001        ..      STRH     r1,[r0,#0]
        0x080033fc:    8801        ..      LDRH     r1,[r0,#0]
        0x080033fe:    f4414100    A..A    ORR      r1,r1,#0x8000
        0x08003402:    e7f5        ..      B        0x80033f0 ; USB_EPStartXfer + 712
        0x08003404:    0969        i.      LSRS     r1,r5,#5
        0x08003406:    06ea        ..      LSLS     r2,r5,#27
        0x08003408:    d100        ..      BNE      0x800340c ; USB_EPStartXfer + 740
        0x0800340a:    1e49        I.      SUBS     r1,r1,#1
        0x0800340c:    ea482181    H..!    ORR      r1,r8,r1,LSL #10
        0x08003410:    e7ee        ..      B        0x80033f0 ; USB_EPStartXfer + 712
        0x08003412:    f8b42050    ..P     LDRH     r2,[r4,#0x50]
        0x08003416:    1911        ..      ADDS     r1,r2,r4
        0x08003418:    eb011000    ....    ADD      r0,r1,r0,LSL #4
        0x0800341c:    f8a0540c    ...T    STRH     r5,[r0,#0x40c]
        0x08003420:    8972        r.      LDRH     r2,[r6,#0xa]
        0x08003422:    b2ab        ..      UXTH     r3,r5
        0x08003424:    4620         F      MOV      r0,r4
        0x08003426:    6971        qi      LDR      r1,[r6,#0x14]
        0x08003428:    f000f9b6    ....    BL       USB_WritePMA ; 0x8003798
        0x0800342c:    6970        pi      LDR      r0,[r6,#0x14]
        0x0800342e:    4428        (D      ADD      r0,r0,r5
        0x08003430:    6170        pa      STR      r0,[r6,#0x14]
        0x08003432:    6931        1i      LDR      r1,[r6,#0x10]
        0x08003434:    6a30        0j      LDR      r0,[r6,#0x20]
        0x08003436:    4288        .B      CMP      r0,r1
        0x08003438:    d903        ..      BLS      0x8003442 ; USB_EPStartXfer + 794
        0x0800343a:    1b40        @.      SUBS     r0,r0,r5
        0x0800343c:    6230        0b      STR      r0,[r6,#0x20]
        0x0800343e:    e003        ..      B        0x8003448 ; USB_EPStartXfer + 800
        0x08003440:    e06e        n.      B        0x8003520 ; USB_EPStartXfer + 1016
        0x08003442:    4605        .F      MOV      r5,r0
        0x08003444:    f8c69020    .. .    STR      r9,[r6,#0x20]
        0x08003448:    2d00        .-      CMP      r5,#0
        0x0800344a:    d0a3        ..      BEQ      0x8003394 ; USB_EPStartXfer + 620
        0x0800344c:    7870        px      LDRB     r0,[r6,#1]
        0x0800344e:    b158        X.      CBZ      r0,0x8003468 ; USB_EPStartXfer + 832
        0x08003450:    2801        .(      CMP      r0,#1
        0x08003452:    f47faf1e    ....    BNE      0x8003292 ; USB_EPStartXfer + 362
        0x08003456:    f8b40050    ..P.    LDRH     r0,[r4,#0x50]
        0x0800345a:    7831        1x      LDRB     r1,[r6,#0]
        0x0800345c:    4420         D      ADD      r0,r0,r4
        0x0800345e:    eb001001    ....    ADD      r0,r0,r1,LSL #4
        0x08003462:    f8a05404    ...T    STRH     r5,[r0,#0x404]
        0x08003466:    e728        (.      B        0x80032ba ; USB_EPStartXfer + 402
        0x08003468:    f8b40050    ..P.    LDRH     r0,[r4,#0x50]
        0x0800346c:    7831        1x      LDRB     r1,[r6,#0]
        0x0800346e:    4420         D      ADD      r0,r0,r4
        0x08003470:    eb001101    ....    ADD      r1,r0,r1,LSL #4
        0x08003474:    f2014104    ...A    ADD      r1,r1,#0x404
        0x08003478:    2d3e        >-      CMP      r5,#0x3e
        0x0800347a:    d806        ..      BHI      0x800348a ; USB_EPStartXfer + 866
        0x0800347c:    0868        h.      LSRS     r0,r5,#1
        0x0800347e:    07ea        ..      LSLS     r2,r5,#31
        0x08003480:    d000        ..      BEQ      0x8003484 ; USB_EPStartXfer + 860
        0x08003482:    1c40        @.      ADDS     r0,r0,#1
        0x08003484:    ea072080    ...     AND      r0,r7,r0,LSL #10
        0x08003488:    e005        ..      B        0x8003496 ; USB_EPStartXfer + 878
        0x0800348a:    0968        h.      LSRS     r0,r5,#5
        0x0800348c:    06ea        ..      LSLS     r2,r5,#27
        0x0800348e:    d100        ..      BNE      0x8003492 ; USB_EPStartXfer + 874
        0x08003490:    1e40        @.      SUBS     r0,r0,#1
        0x08003492:    ea482080    H..     ORR      r0,r8,r0,LSL #10
        0x08003496:    8008        ..      STRH     r0,[r1,#0]
        0x08003498:    e70f        ..      B        0x80032ba ; USB_EPStartXfer + 402
        0x0800349a:    b111        ..      CBZ      r1,0x80034a2 ; USB_EPStartXfer + 890
        0x0800349c:    2901        .)      CMP      r1,#1
        0x0800349e:    d021        !.      BEQ      0x80034e4 ; USB_EPStartXfer + 956
        0x080034a0:    e027        '.      B        0x80034f2 ; USB_EPStartXfer + 970
        0x080034a2:    f8b41050    ..P.    LDRH     r1,[r4,#0x50]
        0x080034a6:    4421        !D      ADD      r1,r1,r4
        0x080034a8:    eb011000    ....    ADD      r0,r1,r0,LSL #4
        0x080034ac:    f2004004    ...@    ADD      r0,r0,#0x404
        0x080034b0:    b14d        M.      CBZ      r5,0x80034c6 ; USB_EPStartXfer + 926
        0x080034b2:    2d3e        >-      CMP      r5,#0x3e
        0x080034b4:    d80f        ..      BHI      0x80034d6 ; USB_EPStartXfer + 942
        0x080034b6:    0869        i.      LSRS     r1,r5,#1
        0x080034b8:    07ea        ..      LSLS     r2,r5,#31
        0x080034ba:    d000        ..      BEQ      0x80034be ; USB_EPStartXfer + 918
        0x080034bc:    1c49        I.      ADDS     r1,r1,#1
        0x080034be:    ea072181    ...!    AND      r1,r7,r1,LSL #10
        0x080034c2:    8001        ..      STRH     r1,[r0,#0]
        0x080034c4:    e015        ..      B        0x80034f2 ; USB_EPStartXfer + 970
        0x080034c6:    8801        ..      LDRH     r1,[r0,#0]
        0x080034c8:    f42141f8    !..A    BIC      r1,r1,#0x7c00
        0x080034cc:    8001        ..      STRH     r1,[r0,#0]
        0x080034ce:    8801        ..      LDRH     r1,[r0,#0]
        0x080034d0:    f4414100    A..A    ORR      r1,r1,#0x8000
        0x080034d4:    e7f5        ..      B        0x80034c2 ; USB_EPStartXfer + 922
        0x080034d6:    0969        i.      LSRS     r1,r5,#5
        0x080034d8:    06ea        ..      LSLS     r2,r5,#27
        0x080034da:    d100        ..      BNE      0x80034de ; USB_EPStartXfer + 950
        0x080034dc:    1e49        I.      SUBS     r1,r1,#1
        0x080034de:    ea482181    H..!    ORR      r1,r8,r1,LSL #10
        0x080034e2:    e7ee        ..      B        0x80034c2 ; USB_EPStartXfer + 922
        0x080034e4:    f8b41050    ..P.    LDRH     r1,[r4,#0x50]
        0x080034e8:    4421        !D      ADD      r1,r1,r4
        0x080034ea:    eb011000    ....    ADD      r0,r1,r0,LSL #4
        0x080034ee:    f8a05404    ...T    STRH     r5,[r0,#0x404]
        0x080034f2:    8932        2.      LDRH     r2,[r6,#8]
        0x080034f4:    b2ab        ..      UXTH     r3,r5
        0x080034f6:    4620         F      MOV      r0,r4
        0x080034f8:    6971        qi      LDR      r1,[r6,#0x14]
        0x080034fa:    f000f94d    ..M.    BL       USB_WritePMA ; 0x8003798
        0x080034fe:    6970        pi      LDR      r0,[r6,#0x14]
        0x08003500:    4428        (D      ADD      r0,r0,r5
        0x08003502:    6170        pa      STR      r0,[r6,#0x14]
        0x08003504:    6931        1i      LDR      r1,[r6,#0x10]
        0x08003506:    6a30        0j      LDR      r0,[r6,#0x20]
        0x08003508:    4288        .B      CMP      r0,r1
        0x0800350a:    d902        ..      BLS      0x8003512 ; USB_EPStartXfer + 1002
        0x0800350c:    1b40        @.      SUBS     r0,r0,r5
        0x0800350e:    6230        0b      STR      r0,[r6,#0x20]
        0x08003510:    e002        ..      B        0x8003518 ; USB_EPStartXfer + 1008
        0x08003512:    4605        .F      MOV      r5,r0
        0x08003514:    f8c69020    .. .    STR      r9,[r6,#0x20]
        0x08003518:    2d00        .-      CMP      r5,#0
        0x0800351a:    d096        ..      BEQ      0x800344a ; USB_EPStartXfer + 802
        0x0800351c:    7870        px      LDRB     r0,[r6,#1]
        0x0800351e:    b158        X.      CBZ      r0,0x8003538 ; USB_EPStartXfer + 1040
        0x08003520:    2801        .(      CMP      r0,#1
        0x08003522:    f47faf20    .. .    BNE      0x8003366 ; USB_EPStartXfer + 574
        0x08003526:    f8b41050    ..P.    LDRH     r1,[r4,#0x50]
        0x0800352a:    1908        ..      ADDS     r0,r1,r4
        0x0800352c:    7831        1x      LDRB     r1,[r6,#0]
        0x0800352e:    eb001001    ....    ADD      r0,r0,r1,LSL #4
        0x08003532:    f8a0540c    ...T    STRH     r5,[r0,#0x40c]
        0x08003536:    e727        '.      B        0x8003388 ; USB_EPStartXfer + 608
        0x08003538:    f8b40050    ..P.    LDRH     r0,[r4,#0x50]
        0x0800353c:    7831        1x      LDRB     r1,[r6,#0]
        0x0800353e:    4420         D      ADD      r0,r0,r4
        0x08003540:    eb001101    ....    ADD      r1,r0,r1,LSL #4
        0x08003544:    f201410c    ...A    ADD      r1,r1,#0x40c
        0x08003548:    2d3e        >-      CMP      r5,#0x3e
        0x0800354a:    d806        ..      BHI      0x800355a ; USB_EPStartXfer + 1074
        0x0800354c:    0868        h.      LSRS     r0,r5,#1
        0x0800354e:    07ea        ..      LSLS     r2,r5,#31
        0x08003550:    d000        ..      BEQ      0x8003554 ; USB_EPStartXfer + 1068
        0x08003552:    1c40        @.      ADDS     r0,r0,#1
        0x08003554:    ea072080    ...     AND      r0,r7,r0,LSL #10
        0x08003558:    e005        ..      B        0x8003566 ; USB_EPStartXfer + 1086
        0x0800355a:    0968        h.      LSRS     r0,r5,#5
        0x0800355c:    06ea        ..      LSLS     r2,r5,#27
        0x0800355e:    d100        ..      BNE      0x8003562 ; USB_EPStartXfer + 1082
        0x08003560:    1e40        @.      SUBS     r0,r0,#1
        0x08003562:    ea482080    H..     ORR      r0,r8,r0,LSL #10
        0x08003566:    8008        ..      STRH     r0,[r1,#0]
        0x08003568:    e70e        ..      B        0x8003388 ; USB_EPStartXfer + 608
        0x0800356a:    69b1        .i      LDR      r1,[r6,#0x18]
        0x0800356c:    6930        0i      LDR      r0,[r6,#0x10]
        0x0800356e:    4281        .B      CMP      r1,r0
        0x08003570:    d902        ..      BLS      0x8003578 ; USB_EPStartXfer + 1104
        0x08003572:    1a09        ..      SUBS     r1,r1,r0
        0x08003574:    61b1        .a      STR      r1,[r6,#0x18]
        0x08003576:    e0b5        ..      B        0x80036e4 ; USB_EPStartXfer + 1468
        0x08003578:    4608        .F      MOV      r0,r1
        0x0800357a:    f8c69018    ....    STR      r9,[r6,#0x18]
        0x0800357e:    e0b1        ..      B        0x80036e4 ; USB_EPStartXfer + 1468
        0x08003580:    8808        ..      LDRH     r0,[r1,#0]
        0x08003582:    f42040f8     ..@    BIC      r0,r0,#0x7c00
        0x08003586:    8008        ..      STRH     r0,[r1,#0]
        0x08003588:    8808        ..      LDRH     r0,[r1,#0]
        0x0800358a:    f4404000    @..@    ORR      r0,r0,#0x8000
        0x0800358e:    e00b        ..      B        0x80035a8 ; USB_EPStartXfer + 1152
        0x08003590:    283e        >(      CMP      r0,#0x3e
        0x08003592:    d875        u.      BHI      0x8003680 ; USB_EPStartXfer + 1368
        0x08003594:    0842        B.      LSRS     r2,r0,#1
        0x08003596:    07c0        ..      LSLS     r0,r0,#31
        0x08003598:    d000        ..      BEQ      0x800359c ; USB_EPStartXfer + 1140
        0x0800359a:    1c52        R.      ADDS     r2,r2,#1
        0x0800359c:    ea072082    ...     AND      r0,r7,r2,LSL #10
        0x080035a0:    e002        ..      B        0x80035a8 ; USB_EPStartXfer + 1152
        0x080035a2:    bf00        ..      NOP      
        0x080035a4:    ea482082    H..     ORR      r0,r8,r2,LSL #10
        0x080035a8:    8008        ..      STRH     r0,[r1,#0]
        0x080035aa:    e0b5        ..      B        0x8003718 ; USB_EPStartXfer + 1520
        0x080035ac:    b993        ..      CBNZ     r3,0x80035d4 ; USB_EPStartXfer + 1196
        0x080035ae:    f8b40050    ..P.    LDRH     r0,[r4,#0x50]
        0x080035b2:    7831        1x      LDRB     r1,[r6,#0]
        0x080035b4:    4420         D      ADD      r0,r0,r4
        0x080035b6:    eb001001    ....    ADD      r0,r0,r1,LSL #4
        0x080035ba:    6931        1i      LDR      r1,[r6,#0x10]
        0x080035bc:    f2004004    ...@    ADD      r0,r0,#0x404
        0x080035c0:    b169        i.      CBZ      r1,0x80035de ; USB_EPStartXfer + 1206
        0x080035c2:    293e        >)      CMP      r1,#0x3e
        0x080035c4:    d813        ..      BHI      0x80035ee ; USB_EPStartXfer + 1222
        0x080035c6:    084b        K.      LSRS     r3,r1,#1
        0x080035c8:    07c9        ..      LSLS     r1,r1,#31
        0x080035ca:    d000        ..      BEQ      0x80035ce ; USB_EPStartXfer + 1190
        0x080035cc:    1c5b        [.      ADDS     r3,r3,#1
        0x080035ce:    ea072183    ...!    AND      r1,r7,r3,LSL #10
        0x080035d2:    8001        ..      STRH     r1,[r0,#0]
        0x080035d4:    7870        px      LDRB     r0,[r6,#1]
        0x080035d6:    b188        ..      CBZ      r0,0x80035fc ; USB_EPStartXfer + 1236
        0x080035d8:    2801        .(      CMP      r0,#1
        0x080035da:    d032        2.      BEQ      0x8003642 ; USB_EPStartXfer + 1306
        0x080035dc:    e03a        :.      B        0x8003654 ; USB_EPStartXfer + 1324
        0x080035de:    8801        ..      LDRH     r1,[r0,#0]
        0x080035e0:    f42141f8    !..A    BIC      r1,r1,#0x7c00
        0x080035e4:    8001        ..      STRH     r1,[r0,#0]
        0x080035e6:    8801        ..      LDRH     r1,[r0,#0]
        0x080035e8:    f4414100    A..A    ORR      r1,r1,#0x8000
        0x080035ec:    e7f1        ..      B        0x80035d2 ; USB_EPStartXfer + 1194
        0x080035ee:    094b        K.      LSRS     r3,r1,#5
        0x080035f0:    06c9        ..      LSLS     r1,r1,#27
        0x080035f2:    d100        ..      BNE      0x80035f6 ; USB_EPStartXfer + 1230
        0x080035f4:    1e5b        [.      SUBS     r3,r3,#1
        0x080035f6:    ea482183    H..!    ORR      r1,r8,r3,LSL #10
        0x080035fa:    e7ea        ..      B        0x80035d2 ; USB_EPStartXfer + 1194
        0x080035fc:    f8b40050    ..P.    LDRH     r0,[r4,#0x50]
        0x08003600:    7831        1x      LDRB     r1,[r6,#0]
        0x08003602:    4420         D      ADD      r0,r0,r4
        0x08003604:    eb001001    ....    ADD      r0,r0,r1,LSL #4
        0x08003608:    6931        1i      LDR      r1,[r6,#0x10]
        0x0800360a:    f200400c    ...@    ADD      r0,r0,#0x40c
        0x0800360e:    b149        I.      CBZ      r1,0x8003624 ; USB_EPStartXfer + 1276
        0x08003610:    293e        >)      CMP      r1,#0x3e
        0x08003612:    d80f        ..      BHI      0x8003634 ; USB_EPStartXfer + 1292
        0x08003614:    084b        K.      LSRS     r3,r1,#1
        0x08003616:    07c9        ..      LSLS     r1,r1,#31
        0x08003618:    d000        ..      BEQ      0x800361c ; USB_EPStartXfer + 1268
        0x0800361a:    1c5b        [.      ADDS     r3,r3,#1
        0x0800361c:    ea072183    ...!    AND      r1,r7,r3,LSL #10
        0x08003620:    8001        ..      STRH     r1,[r0,#0]
        0x08003622:    e017        ..      B        0x8003654 ; USB_EPStartXfer + 1324
        0x08003624:    8801        ..      LDRH     r1,[r0,#0]
        0x08003626:    f42141f8    !..A    BIC      r1,r1,#0x7c00
        0x0800362a:    8001        ..      STRH     r1,[r0,#0]
        0x0800362c:    8801        ..      LDRH     r1,[r0,#0]
        0x0800362e:    f4414100    A..A    ORR      r1,r1,#0x8000
        0x08003632:    e7f5        ..      B        0x8003620 ; USB_EPStartXfer + 1272
        0x08003634:    094b        K.      LSRS     r3,r1,#5
        0x08003636:    06c9        ..      LSLS     r1,r1,#27
        0x08003638:    d100        ..      BNE      0x800363c ; USB_EPStartXfer + 1300
        0x0800363a:    1e5b        [.      SUBS     r3,r3,#1
        0x0800363c:    ea482183    H..!    ORR      r1,r8,r3,LSL #10
        0x08003640:    e7ee        ..      B        0x8003620 ; USB_EPStartXfer + 1272
        0x08003642:    f8b41050    ..P.    LDRH     r1,[r4,#0x50]
        0x08003646:    1908        ..      ADDS     r0,r1,r4
        0x08003648:    7831        1x      LDRB     r1,[r6,#0]
        0x0800364a:    eb001001    ....    ADD      r0,r0,r1,LSL #4
        0x0800364e:    8a31        1.      LDRH     r1,[r6,#0x10]
        0x08003650:    f8a0140c    ....    STRH     r1,[r0,#0x40c]
        0x08003654:    69f0        .i      LDR      r0,[r6,#0x1c]
        0x08003656:    b3a8        ..      CBZ      r0,0x80036c4 ; USB_EPStartXfer + 1436
        0x08003658:    7831        1x      LDRB     r1,[r6,#0]
        0x0800365a:    f8340021    4.!.    LDRH     r0,[r4,r1,LSL #2]
        0x0800365e:    0443        C.      LSLS     r3,r0,#17
        0x08003660:    d501        ..      BPL      0x8003666 ; USB_EPStartXfer + 1342
        0x08003662:    0643        C.      LSLS     r3,r0,#25
        0x08003664:    d403        ..      BMI      0x800366e ; USB_EPStartXfer + 1350
        0x08003666:    f2440340    D.@.    MOV      r3,#0x4040
        0x0800366a:    4218        .B      TST      r0,r3
        0x0800366c:    d154        T.      BNE      0x8003718 ; USB_EPStartXfer + 1520
        0x0800366e:    f8340021    4.!.    LDRH     r0,[r4,r1,LSL #2]
        0x08003672:    4010        .@      ANDS     r0,r0,r2
        0x08003674:    f24802c0    H...    MOV      r2,#0x80c0
        0x08003678:    4310        .C      ORRS     r0,r0,r2
        0x0800367a:    f8240021    $.!.    STRH     r0,[r4,r1,LSL #2]
        0x0800367e:    e04b        K.      B        0x8003718 ; USB_EPStartXfer + 1520
        0x08003680:    e03c        <.      B        0x80036fc ; USB_EPStartXfer + 1492
        0x08003682:    69b1        .i      LDR      r1,[r6,#0x18]
        0x08003684:    6930        0i      LDR      r0,[r6,#0x10]
        0x08003686:    4281        .B      CMP      r1,r0
        0x08003688:    d902        ..      BLS      0x8003690 ; USB_EPStartXfer + 1384
        0x0800368a:    1a09        ..      SUBS     r1,r1,r0
        0x0800368c:    61b1        .a      STR      r1,[r6,#0x18]
        0x0800368e:    e002        ..      B        0x8003696 ; USB_EPStartXfer + 1390
        0x08003690:    4608        .F      MOV      r0,r1
        0x08003692:    f8c69018    ....    STR      r9,[r6,#0x18]
        0x08003696:    b98b        ..      CBNZ     r3,0x80036bc ; USB_EPStartXfer + 1428
        0x08003698:    f8b41050    ..P.    LDRH     r1,[r4,#0x50]
        0x0800369c:    7832        2x      LDRB     r2,[r6,#0]
        0x0800369e:    4421        !D      ADD      r1,r1,r4
        0x080036a0:    eb011102    ....    ADD      r1,r1,r2,LSL #4
        0x080036a4:    f2014104    ...A    ADD      r1,r1,#0x404
        0x080036a8:    b168        h.      CBZ      r0,0x80036c6 ; USB_EPStartXfer + 1438
        0x080036aa:    283e        >(      CMP      r0,#0x3e
        0x080036ac:    d813        ..      BHI      0x80036d6 ; USB_EPStartXfer + 1454
        0x080036ae:    0842        B.      LSRS     r2,r0,#1
        0x080036b0:    07c3        ..      LSLS     r3,r0,#31
        0x080036b2:    d000        ..      BEQ      0x80036b6 ; USB_EPStartXfer + 1422
        0x080036b4:    1c52        R.      ADDS     r2,r2,#1
        0x080036b6:    ea072282    ..."    AND      r2,r7,r2,LSL #10
        0x080036ba:    800a        ..      STRH     r2,[r1,#0]
        0x080036bc:    7871        qx      LDRB     r1,[r6,#1]
        0x080036be:    b189        ..      CBZ      r1,0x80036e4 ; USB_EPStartXfer + 1468
        0x080036c0:    2901        .)      CMP      r1,#1
        0x080036c2:    d021        !.      BEQ      0x8003708 ; USB_EPStartXfer + 1504
        0x080036c4:    e028        (.      B        0x8003718 ; USB_EPStartXfer + 1520
        0x080036c6:    880a        ..      LDRH     r2,[r1,#0]
        0x080036c8:    f42242f8    "..B    BIC      r2,r2,#0x7c00
        0x080036cc:    800a        ..      STRH     r2,[r1,#0]
        0x080036ce:    880a        ..      LDRH     r2,[r1,#0]
        0x080036d0:    f4424200    B..B    ORR      r2,r2,#0x8000
        0x080036d4:    e7f1        ..      B        0x80036ba ; USB_EPStartXfer + 1426
        0x080036d6:    0942        B.      LSRS     r2,r0,#5
        0x080036d8:    06c3        ..      LSLS     r3,r0,#27
        0x080036da:    d100        ..      BNE      0x80036de ; USB_EPStartXfer + 1462
        0x080036dc:    1e52        R.      SUBS     r2,r2,#1
        0x080036de:    ea482282    H.."    ORR      r2,r8,r2,LSL #10
        0x080036e2:    e7ea        ..      B        0x80036ba ; USB_EPStartXfer + 1426
        0x080036e4:    f8b41050    ..P.    LDRH     r1,[r4,#0x50]
        0x080036e8:    7832        2x      LDRB     r2,[r6,#0]
        0x080036ea:    4421        !D      ADD      r1,r1,r4
        0x080036ec:    eb011102    ....    ADD      r1,r1,r2,LSL #4
        0x080036f0:    f201410c    ...A    ADD      r1,r1,#0x40c
        0x080036f4:    2800        .(      CMP      r0,#0
        0x080036f6:    f47faf4b    ..K.    BNE      0x8003590 ; USB_EPStartXfer + 1128
        0x080036fa:    e741        A.      B        0x8003580 ; USB_EPStartXfer + 1112
        0x080036fc:    0942        B.      LSRS     r2,r0,#5
        0x080036fe:    06c0        ..      LSLS     r0,r0,#27
        0x08003700:    f47faf50    ..P.    BNE      0x80035a4 ; USB_EPStartXfer + 1148
        0x08003704:    1e52        R.      SUBS     r2,r2,#1
        0x08003706:    e74d        M.      B        0x80035a4 ; USB_EPStartXfer + 1148
        0x08003708:    f8b42050    ..P     LDRH     r2,[r4,#0x50]
        0x0800370c:    1911        ..      ADDS     r1,r2,r4
        0x0800370e:    7832        2x      LDRB     r2,[r6,#0]
        0x08003710:    eb011102    ....    ADD      r1,r1,r2,LSL #4
        0x08003714:    f8a1040c    ....    STRH     r0,[r1,#0x40c]
        0x08003718:    7831        1x      LDRB     r1,[r6,#0]
        0x0800371a:    f8340021    4.!.    LDRH     r0,[r4,r1,LSL #2]
        0x0800371e:    f64b728f    K..r    MOV      r2,#0xbf8f
        0x08003722:    4010        .@      ANDS     r0,r0,r2
        0x08003724:    f4805040    ..@P    EOR      r0,r0,#0x3000
        0x08003728:    ea40000a    @...    ORR      r0,r0,r10
        0x0800372c:    f8240021    $.!.    STRH     r0,[r4,r1,LSL #2]
        0x08003730:    2000        .       MOVS     r0,#0
        0x08003732:    e513        ..      B        0x800315c ; USB_EPStartXfer + 52
    i.USB_EnableGlobalInt
    USB_EnableGlobalInt
        0x08003734:    2100        .!      MOVS     r1,#0
        0x08003736:    f8a01044    ..D.    STRH     r1,[r0,#0x44]
        0x0800373a:    f44f413f    O.?A    MOV      r1,#0xbf00
        0x0800373e:    f8a01040    ..@.    STRH     r1,[r0,#0x40]
        0x08003742:    2000        .       MOVS     r0,#0
        0x08003744:    4770        pG      BX       lr
        0x08003746:    0000        ..      MOVS     r0,r0
    i.USB_LP_CAN1_RX0_IRQHandler
    USB_LP_CAN1_RX0_IRQHandler
        0x08003748:    4801        .H      LDR      r0,[pc,#4] ; [0x8003750] = 0x20000c14
        0x0800374a:    f7fdbabb    ....    B        HAL_PCD_IRQHandler ; 0x8000cc4
    $d
        0x0800374e:    0000        ..      DCW    0
        0x08003750:    20000c14    ...     DCD    536874004
    $t
    i.USB_ReadInterrupts
    USB_ReadInterrupts
        0x08003754:    f8b00044    ..D.    LDRH     r0,[r0,#0x44]
        0x08003758:    4770        pG      BX       lr
        0x0800375a:    0000        ..      MOVS     r0,r0
    i.USB_ReadPMA
    USB_ReadPMA
        0x0800375c:    b510        ..      PUSH     {r4,lr}
        0x0800375e:    eb000042    ..B.    ADD      r0,r0,r2,LSL #1
        0x08003762:    085c        \.      LSRS     r4,r3,#1
        0x08003764:    f5006080    ...`    ADD      r0,r0,#0x400
        0x08003768:    d009        ..      BEQ      0x800377e ; USB_ReadPMA + 34
        0x0800376a:    bf00        ..      NOP      
        0x0800376c:    f8302b04    0..+    LDRH     r2,[r0],#4
        0x08003770:    f8012b01    ...+    STRB     r2,[r1],#1
        0x08003774:    0a12        ..      LSRS     r2,r2,#8
        0x08003776:    f8012b01    ...+    STRB     r2,[r1],#1
        0x0800377a:    1e64        d.      SUBS     r4,r4,#1
        0x0800377c:    d1f6        ..      BNE      0x800376c ; USB_ReadPMA + 16
        0x0800377e:    07da        ..      LSLS     r2,r3,#31
        0x08003780:    d001        ..      BEQ      0x8003786 ; USB_ReadPMA + 42
        0x08003782:    8800        ..      LDRH     r0,[r0,#0]
        0x08003784:    7008        .p      STRB     r0,[r1,#0]
        0x08003786:    bd10        ..      POP      {r4,pc}
    i.USB_SetCurrentMode
    USB_SetCurrentMode
        0x08003788:    2000        .       MOVS     r0,#0
        0x0800378a:    4770        pG      BX       lr
    i.USB_SetDevAddress
    USB_SetDevAddress
        0x0800378c:    b911        ..      CBNZ     r1,0x8003794 ; USB_SetDevAddress + 8
        0x0800378e:    2180        .!      MOVS     r1,#0x80
        0x08003790:    f8a0104c    ..L.    STRH     r1,[r0,#0x4c]
        0x08003794:    2000        .       MOVS     r0,#0
        0x08003796:    4770        pG      BX       lr
    i.USB_WritePMA
    USB_WritePMA
        0x08003798:    b510        ..      PUSH     {r4,lr}
        0x0800379a:    1c5b        [.      ADDS     r3,r3,#1
        0x0800379c:    eb000042    ..B.    ADD      r0,r0,r2,LSL #1
        0x080037a0:    085b        [.      LSRS     r3,r3,#1
        0x080037a2:    f5006080    ...`    ADD      r0,r0,#0x400
        0x080037a6:    d009        ..      BEQ      0x80037bc ; USB_WritePMA + 36
        0x080037a8:    f8112b01    ...+    LDRB     r2,[r1],#1
        0x080037ac:    f8114b01    ...K    LDRB     r4,[r1],#1
        0x080037b0:    ea422204    B.."    ORR      r2,r2,r4,LSL #8
        0x080037b4:    f8202b04     ..+    STRH     r2,[r0],#4
        0x080037b8:    1e5b        [.      SUBS     r3,r3,#1
        0x080037ba:    d1f5        ..      BNE      0x80037a8 ; USB_WritePMA + 16
        0x080037bc:    bd10        ..      POP      {r4,pc}
    i.UsageFault_Handler
    UsageFault_Handler
        0x080037be:    e7fe        ..      B        UsageFault_Handler ; 0x80037be
    i.__NVIC_SetPriority
    __NVIC_SetPriority
        0x080037c0:    0709        ..      LSLS     r1,r1,#28
        0x080037c2:    0e09        ..      LSRS     r1,r1,#24
        0x080037c4:    2800        .(      CMP      r0,#0
        0x080037c6:    db04        ..      BLT      0x80037d2 ; __NVIC_SetPriority + 18
        0x080037c8:    f10020e0    ...     ADD      r0,r0,#0xe000e000
        0x080037cc:    f8801400    ....    STRB     r1,[r0,#0x400]
        0x080037d0:    4770        pG      BX       lr
        0x080037d2:    f000000f    ....    AND      r0,r0,#0xf
        0x080037d6:    f10020e0    ...     ADD      r0,r0,#0xe000e000
        0x080037da:    f8801d14    ....    STRB     r1,[r0,#0xd14]
        0x080037de:    4770        pG      BX       lr
    i.main
    main
        0x080037e0:    f7fcfeaa    ....    BL       HAL_Init ; 0x8000538
        0x080037e4:    f7fefb18    ....    BL       SystemClock_Config ; 0x8001e18
        0x080037e8:    f7fef8f4    ....    BL       MX_GPIO_Init ; 0x80019d4
        0x080037ec:    f7fef910    ....    BL       MX_USART1_UART_Init ; 0x8001a10
        0x080037f0:    f7fef92a    ..*.    BL       MX_USART2_UART_Init ; 0x8001a48
        0x080037f4:    f7fef944    ..D.    BL       MX_USART3_UART_Init ; 0x8001a80
        0x080037f8:    f7fef95e    ..^.    BL       MX_USB_DEVICE_Init ; 0x8001ab8
        0x080037fc:    f7fefb54    ..T.    BL       UART1_Begin ; 0x8001ea8
        0x08003800:    f7fefb8a    ....    BL       UART2_Begin ; 0x8001f18
        0x08003804:    f7fefbae    ....    BL       UART3_Begin ; 0x8001f64
        0x08003808:    f7fef85e    ..^.    BL       MIDI_ProcessUSBData ; 0x80018c8
        0x0800380c:    f7fdffe2    ....    BL       MIDI_ProcessUARTData ; 0x80017d4
        0x08003810:    e7fa        ..      B        0x8003808 ; main + 40
    $d.realdata
    .constdata
    AHBPrescTable
        0x08003812:    0000        ..      DCW    0
        0x08003814:    00000000    ....    DCD    0
        0x08003818:    02010000    ....    DCD    33619968
        0x0800381c:    07060403    ....    DCD    117834755
        0x08003820:    0908        ..      DCW    2312
    .constdata
    APBPrescTable
        0x08003822:    0000        ..      DCW    0
        0x08003824:    02010000    ....    DCD    33619968
        0x08003828:    00000403    ....    DCD    1027
    Region$$Table$$Base
        0x0800382c:    0800384c    L8..    DCD    134232140
        0x08003830:    20000000    ...     DCD    536870912
        0x08003834:    00000130    0...    DCD    304
        0x08003838:    08000128    (...    DCD    134218024
        0x0800383c:    08003900    .9..    DCD    134232320
        0x08003840:    20000130    0..     DCD    536871216
        0x08003844:    00001470    p...    DCD    5232
        0x08003848:    08000184    ....    DCD    134218116
    Region$$Table$$Limit

** Section #2 'RW_IRAM1' (SHT_PROGBITS) [SHF_ALLOC + SHF_WRITE]
    Size   : 180 bytes (alignment 4)
    Address: 0x20000000


** Section #3 'RW_IRAM1' (SHT_NOBITS) [SHF_ALLOC + SHF_WRITE]
    Size   : 5232 bytes (alignment 8)
    Address: 0x20000130


** Section #4 '.debug_abbrev' (SHT_PROGBITS)
    Size   : 1476 bytes


** Section #5 '.debug_frame' (SHT_PROGBITS)
    Size   : 4668 bytes


** Section #6 '.debug_info' (SHT_PROGBITS)
    Size   : 73372 bytes


** Section #7 '.debug_line' (SHT_PROGBITS)
    Size   : 30908 bytes


** Section #8 '.debug_loc' (SHT_PROGBITS)
    Size   : 13276 bytes


** Section #9 '.debug_macinfo' (SHT_PROGBITS)
    Size   : 419192 bytes


** Section #10 '.debug_pubnames' (SHT_PROGBITS)
    Size   : 6031 bytes


** Section #11 '.symtab' (SHT_SYMTAB)
    Size   : 12640 bytes (alignment 4)
    String table #12 '.strtab'
    Last local symbol no. 517


** Section #12 '.strtab' (SHT_STRTAB)
    Size   : 14020 bytes


** Section #13 '.note' (SHT_NOTE)
    Size   : 28 bytes (alignment 4)


** Section #14 '.comment' (SHT_PROGBITS)
    Size   : 46508 bytes


** Section #15 '.shstrtab' (SHT_STRTAB)
    Size   : 156 bytes


address     size       variable name                            type
0x20000078  0x38       USBD_MIDI                                USBD_ClassTypeDef
0x20000078  0x4        USBD_MIDI.Init                           pointer to function 
0x2000007c  0x4        USBD_MIDI.DeInit                         pointer to function 
0x20000080  0x4        USBD_MIDI.Setup                          pointer to function 
0x20000084  0x4        USBD_MIDI.EP0_TxSent                     pointer to function 
0x20000088  0x4        USBD_MIDI.EP0_RxReady                    pointer to function 
0x2000008c  0x4        USBD_MIDI.DataIn                         pointer to function 
0x20000090  0x4        USBD_MIDI.DataOut                        pointer to function 
0x20000094  0x4        USBD_MIDI.SOF                            pointer to function 
0x20000098  0x4        USBD_MIDI.IsoINIncomplete                pointer to function 
0x2000009c  0x4        USBD_MIDI.IsoOUTIncomplete               pointer to function 
0x200000a0  0x4        USBD_MIDI.GetHSConfigDescriptor          pointer to function 
0x200000a4  0x4        USBD_MIDI.GetFSConfigDescriptor          pointer to function 
0x200000a8  0x4        USBD_MIDI.GetOtherSpeedConfigDescriptor  pointer to function 
0x200000ac  0x4        USBD_MIDI.GetDeviceQualifierDescriptor   pointer to function 

address     size       variable name                            type
0x200000b0  0x73       USBD_MIDI_CfgDesc                        array[115] of uint8_t

address     size       variable name                            type
0x20000124  0xa        USBD_MIDI_DeviceQualifierDesc            array[10] of uint8_t

address     size       variable name                            type
0x20000f00  0x40       usb_rx_buffer                            array[64] of uint8_t

address     size       variable name                            type
0x08003812  0x10       AHBPrescTable                            array[16] of const uint8_t

address     size       variable name                            type
0x08003822  0x8        APBPrescTable                            array[8] of const uint8_t

address     size       variable name                            type
0x20000074  0x4        SystemCoreClock                          uint32_t

address     size       variable name                            type
0x20000070  0x4        uwTick                                   volatile uint32_t

address     size       variable name                            type
0x20000068  0x1        uwTickFreq                               HAL_TickFreqTypeDef

address     size       variable name                            type
0x2000006c  0x4        uwTickPrio                               uint32_t

address     size       variable name                            type
0x20000c14  0x2ec      hpcd_USB_FS                              PCD_HandleTypeDef
0x20000c14  0x4        hpcd_USB_FS.Instance                     pointer to PCD_TypeDef
0x20000c18  0x20       hpcd_USB_FS.Init                         PCD_InitTypeDef
0x20000c18  0x4        hpcd_USB_FS.Init.dev_endpoints           uint32_t
0x20000c1c  0x4        hpcd_USB_FS.Init.speed                   uint32_t
0x20000c20  0x4        hpcd_USB_FS.Init.ep0_mps                 uint32_t
0x20000c24  0x4        hpcd_USB_FS.Init.phy_itface              uint32_t
0x20000c28  0x4        hpcd_USB_FS.Init.Sof_enable              uint32_t
0x20000c2c  0x4        hpcd_USB_FS.Init.low_power_enable        uint32_t
0x20000c30  0x4        hpcd_USB_FS.Init.lpm_enable              uint32_t
0x20000c34  0x4        hpcd_USB_FS.Init.battery_charging_enable uint32_t
0x20000c38  0x1      * hpcd_USB_FS.USB_Address                  volatile uint8_t
0x20000c3c  0x140      hpcd_USB_FS.IN_ep                        array[8] of PCD_EPTypeDef
0x20000d7c  0x140      hpcd_USB_FS.OUT_ep                       array[8] of PCD_EPTypeDef
0x20000ebc  0x1        hpcd_USB_FS.Lock                         HAL_LockTypeDef
0x20000ebd  0x1      * hpcd_USB_FS.State                        volatile PCD_StateTypeDef
0x20000ec0  0x4        hpcd_USB_FS.ErrorCode                    volatile uint32_t
0x20000ec4  0x30       hpcd_USB_FS.Setup                        array[12] of uint32_t
0x20000ef4  0x1      * hpcd_USB_FS.LPM_State                    PCD_LPM_StateTypeDef
0x20000ef8  0x4        hpcd_USB_FS.BESL                         uint32_t
0x20000efc  0x4        hpcd_USB_FS.pData                        pointer to unknown Type 

address     size       variable name                            type
0x20000018  0x1c       FS_Desc                                  USBD_DescriptorsTypeDef
0x20000018  0x4        FS_Desc.GetDeviceDescriptor              pointer to function 
0x2000001c  0x4        FS_Desc.GetLangIDStrDescriptor           pointer to function 
0x20000020  0x4        FS_Desc.GetManufacturerStrDescriptor     pointer to function 
0x20000024  0x4        FS_Desc.GetProductStrDescriptor          pointer to function 
0x20000028  0x4        FS_Desc.GetSerialStrDescriptor           pointer to function 
0x2000002c  0x4        FS_Desc.GetConfigurationStrDescriptor    pointer to function 
0x20000030  0x4        FS_Desc.GetInterfaceStrDescriptor        pointer to function 

address     size       variable name                            type
0x20000038  0x12       USBD_FS_DeviceDesc                       array[18] of uint8_t

address     size       variable name                            type
0x20000034  0x4        USBD_LangIDDesc                          array[4] of uint8_t

address     size       variable name                            type
0x20000a00  0x200      USBD_StrDesc                             array[512] of uint8_t

address     size       variable name                            type
0x2000004c  0x1a       USBD_StringSerial                        array[26] of uint8_t

address     size       variable name                            type
0x2000073c  0x2c4      hUsbDeviceFS                             USBD_HandleTypeDef
0x2000073c  0x1      * hUsbDeviceFS.id                          uint8_t
0x20000740  0x4        hUsbDeviceFS.dev_config                  uint32_t
0x20000744  0x4        hUsbDeviceFS.dev_default_config          uint32_t
0x20000748  0x4        hUsbDeviceFS.dev_config_status           uint32_t
0x2000074c  0x1      * hUsbDeviceFS.dev_speed                   USBD_SpeedTypeDef
0x20000750  0x140      hUsbDeviceFS.ep_in                       array[16] of USBD_EndpointTypeDef
0x20000890  0x140      hUsbDeviceFS.ep_out                      array[16] of USBD_EndpointTypeDef
0x200009d0  0x4        hUsbDeviceFS.ep0_state                   uint32_t
0x200009d4  0x4        hUsbDeviceFS.ep0_data_len                uint32_t
0x200009d8  0x1        hUsbDeviceFS.dev_state                   uint8_t
0x200009d9  0x1        hUsbDeviceFS.dev_old_state               uint8_t
0x200009da  0x1        hUsbDeviceFS.dev_address                 uint8_t
0x200009db  0x1        hUsbDeviceFS.dev_connection_status       uint8_t
0x200009dc  0x1      * hUsbDeviceFS.dev_test_mode               uint8_t
0x200009e0  0x4        hUsbDeviceFS.dev_remote_wakeup           uint32_t
0x200009e4  0x8        hUsbDeviceFS.request                     USBD_SetupReqTypedef
0x200009e4  0x1        hUsbDeviceFS.request.bmRequest           uint8_t
0x200009e5  0x1        hUsbDeviceFS.request.bRequest            uint8_t
0x200009e6  0x2        hUsbDeviceFS.request.wValue              uint16_t
0x200009e8  0x2        hUsbDeviceFS.request.wIndex              uint16_t
0x200009ea  0x2        hUsbDeviceFS.request.wLength             uint16_t
0x200009ec  0x4        hUsbDeviceFS.pDesc                       pointer to USBD_DescriptorsTypeDef
0x200009f0  0x4        hUsbDeviceFS.pClass                      pointer to USBD_ClassTypeDef
0x200009f4  0x4        hUsbDeviceFS.pClassData                  pointer to unknown Type 
0x200009f8  0x4        hUsbDeviceFS.pUserData                   pointer to unknown Type 
0x200009fc  0x4        hUsbDeviceFS.pData                       pointer to unknown Type 

address     size       variable name                            type
0x20000270  0x100      buffRxUart1                              array[256] of uint8_t

address     size       variable name                            type
0x2000000c  0x1        buffRxUart1ReadIndex                     volatile uint8_t

address     size       variable name                            type
0x2000000b  0x1        buffRxUart1WriteIndex                    volatile uint8_t

address     size       variable name                            type
0x20000370  0x100      buffTxUart1                              array[256] of uint8_t

address     size       variable name                            type
0x2000000e  0x1        buffTxUart1ReadIndex                     volatile uint8_t

address     size       variable name                            type
0x2000000d  0x1        buffTxUart1WriteIndex                    volatile uint8_t

address     size       variable name                            type
0x20000470  0x100      buffTxUart2                              array[256] of uint8_t

address     size       variable name                            type
0x20000011  0x1        buffTxUart2ReadIndex                     volatile uint8_t

address     size       variable name                            type
0x20000010  0x1        buffTxUart2WriteIndex                    volatile uint8_t

address     size       variable name                            type
0x20000570  0x100      buffTxUart3                              array[256] of uint8_t

address     size       variable name                            type
0x20000014  0x1        buffTxUart3ReadIndex                     volatile uint8_t

address     size       variable name                            type
0x20000013  0x1        buffTxUart3WriteIndex                    volatile uint8_t

address     size       variable name                            type
0x20000670  0x44       huart1                                   UART_HandleTypeDef
0x20000670  0x4        huart1.Instance                          pointer to USART_TypeDef
0x20000674  0x1c       huart1.Init                              UART_InitTypeDef
0x20000674  0x4        huart1.Init.BaudRate                     uint32_t
0x20000678  0x4        huart1.Init.WordLength                   uint32_t
0x2000067c  0x4        huart1.Init.StopBits                     uint32_t
0x20000680  0x4        huart1.Init.Parity                       uint32_t
0x20000684  0x4        huart1.Init.Mode                         uint32_t
0x20000688  0x4        huart1.Init.HwFlowCtl                    uint32_t
0x2000068c  0x4        huart1.Init.OverSampling                 uint32_t
0x20000690  0x4        huart1.pTxBuffPtr                        pointer to uint8_t
0x20000694  0x2        huart1.TxXferSize                        uint16_t
0x20000696  0x2        huart1.TxXferCount                       volatile uint16_t
0x20000698  0x4        huart1.pRxBuffPtr                        pointer to uint8_t
0x2000069c  0x2        huart1.RxXferSize                        uint16_t
0x2000069e  0x2        huart1.RxXferCount                       volatile uint16_t
0x200006a0  0x4        huart1.ReceptionType                     volatile HAL_UART_RxTypeTypeDef
0x200006a4  0x4        huart1.hdmatx                            pointer to DMA_HandleTypeDef
0x200006a8  0x4        huart1.hdmarx                            pointer to DMA_HandleTypeDef
0x200006ac  0x1        huart1.Lock                              HAL_LockTypeDef
0x200006ad  0x1        huart1.gState                            volatile HAL_UART_StateTypeDef
0x200006ae  0x1      * huart1.RxState                           volatile HAL_UART_StateTypeDef
0x200006b0  0x4        huart1.ErrorCode                         volatile uint32_t

address     size       variable name                            type
0x200006b4  0x44       huart2                                   UART_HandleTypeDef
0x200006b4  0x4        huart2.Instance                          pointer to USART_TypeDef
0x200006b8  0x1c       huart2.Init                              UART_InitTypeDef
0x200006b8  0x4        huart2.Init.BaudRate                     uint32_t
0x200006bc  0x4        huart2.Init.WordLength                   uint32_t
0x200006c0  0x4        huart2.Init.StopBits                     uint32_t
0x200006c4  0x4        huart2.Init.Parity                       uint32_t
0x200006c8  0x4        huart2.Init.Mode                         uint32_t
0x200006cc  0x4        huart2.Init.HwFlowCtl                    uint32_t
0x200006d0  0x4        huart2.Init.OverSampling                 uint32_t
0x200006d4  0x4        huart2.pTxBuffPtr                        pointer to uint8_t
0x200006d8  0x2        huart2.TxXferSize                        uint16_t
0x200006da  0x2        huart2.TxXferCount                       volatile uint16_t
0x200006dc  0x4        huart2.pRxBuffPtr                        pointer to uint8_t
0x200006e0  0x2        huart2.RxXferSize                        uint16_t
0x200006e2  0x2        huart2.RxXferCount                       volatile uint16_t
0x200006e4  0x4        huart2.ReceptionType                     volatile HAL_UART_RxTypeTypeDef
0x200006e8  0x4        huart2.hdmatx                            pointer to DMA_HandleTypeDef
0x200006ec  0x4        huart2.hdmarx                            pointer to DMA_HandleTypeDef
0x200006f0  0x1        huart2.Lock                              HAL_LockTypeDef
0x200006f1  0x1        huart2.gState                            volatile HAL_UART_StateTypeDef
0x200006f2  0x1      * huart2.RxState                           volatile HAL_UART_StateTypeDef
0x200006f4  0x4        huart2.ErrorCode                         volatile uint32_t

address     size       variable name                            type
0x200006f8  0x44       huart3                                   UART_HandleTypeDef
0x200006f8  0x4        huart3.Instance                          pointer to USART_TypeDef
0x200006fc  0x1c       huart3.Init                              UART_InitTypeDef
0x200006fc  0x4        huart3.Init.BaudRate                     uint32_t
0x20000700  0x4        huart3.Init.WordLength                   uint32_t
0x20000704  0x4        huart3.Init.StopBits                     uint32_t
0x20000708  0x4        huart3.Init.Parity                       uint32_t
0x2000070c  0x4        huart3.Init.Mode                         uint32_t
0x20000710  0x4        huart3.Init.HwFlowCtl                    uint32_t
0x20000714  0x4        huart3.Init.OverSampling                 uint32_t
0x20000718  0x4        huart3.pTxBuffPtr                        pointer to uint8_t
0x2000071c  0x2        huart3.TxXferSize                        uint16_t
0x2000071e  0x2        huart3.TxXferCount                       volatile uint16_t
0x20000720  0x4        huart3.pRxBuffPtr                        pointer to uint8_t
0x20000724  0x2        huart3.RxXferSize                        uint16_t
0x20000726  0x2        huart3.RxXferCount                       volatile uint16_t
0x20000728  0x4        huart3.ReceptionType                     volatile HAL_UART_RxTypeTypeDef
0x2000072c  0x4        huart3.hdmatx                            pointer to DMA_HandleTypeDef
0x20000730  0x4        huart3.hdmarx                            pointer to DMA_HandleTypeDef
0x20000734  0x1        huart3.Lock                              HAL_LockTypeDef
0x20000735  0x1        huart3.gState                            volatile HAL_UART_StateTypeDef
0x20000736  0x1      * huart3.RxState                           volatile HAL_UART_StateTypeDef
0x20000738  0x4        huart3.ErrorCode                         volatile uint32_t

address     size       variable name                            type
0x2000000f  0x1        uart1TransmitInProgress                  volatile _Bool

address     size       variable name                            type
0x20000012  0x1        uart2TransmitInProgress                  volatile _Bool

address     size       variable name                            type
0x20000015  0x1        uart3TransmitInProgress                  volatile _Bool

address     size       variable name                            type
0x20000005  0x3        buffUart1                                array[3] of uint8_t

address     size       variable name                            type
0x20000003  0x1        buffUartIndex1                           uint8_t

address     size       variable name                            type
0x20000130  0x40       buffUsbIn                                array[64] of uint8_t

address     size       variable name                            type
0x20000000  0x1        buffUsbInNextIndex                       uint8_t

address     size       variable name                            type
0x20000170  0x100      buffUsbOut                               array[256] of uint8_t

address     size       variable name                            type
0x20000002  0x1        buffUsbOutCurrIndex                      uint8_t

address     size       variable name                            type
0x20000001  0x1        buffUsbOutNextIndex                      volatile uint8_t

address     size       variable name                            type
0x20000004  0x1        msgUart1                                 uint8_t

